
AVRASM ver. 2.1.30  E:\TAM\K\GITHUB\AVR\AD_KIT_GLCD_CLOCK\Debug\List\SCLOCK.asm Thu Oct 26 11:25:17 2017

E:\TAM\K\GITHUB\AVR\AD_KIT_GLCD_CLOCK\Debug\List\SCLOCK.asm(1086): warning: Register r4 already defined by the .DEF directive
E:\TAM\K\GITHUB\AVR\AD_KIT_GLCD_CLOCK\Debug\List\SCLOCK.asm(1087): warning: Register r3 already defined by the .DEF directive
E:\TAM\K\GITHUB\AVR\AD_KIT_GLCD_CLOCK\Debug\List\SCLOCK.asm(1088): warning: Register r6 already defined by the .DEF directive
E:\TAM\K\GITHUB\AVR\AD_KIT_GLCD_CLOCK\Debug\List\SCLOCK.asm(1089): warning: Register r5 already defined by the .DEF directive
E:\TAM\K\GITHUB\AVR\AD_KIT_GLCD_CLOCK\Debug\List\SCLOCK.asm(1090): warning: Register r8 already defined by the .DEF directive
E:\TAM\K\GITHUB\AVR\AD_KIT_GLCD_CLOCK\Debug\List\SCLOCK.asm(1091): warning: Register r7 already defined by the .DEF directive
E:\TAM\K\GITHUB\AVR\AD_KIT_GLCD_CLOCK\Debug\List\SCLOCK.asm(1092): warning: Register r10 already defined by the .DEF directive
E:\TAM\K\GITHUB\AVR\AD_KIT_GLCD_CLOCK\Debug\List\SCLOCK.asm(1093): warning: Register r9 already defined by the .DEF directive
E:\TAM\K\GITHUB\AVR\AD_KIT_GLCD_CLOCK\Debug\List\SCLOCK.asm(1094): warning: Register r12 already defined by the .DEF directive
E:\TAM\K\GITHUB\AVR\AD_KIT_GLCD_CLOCK\Debug\List\SCLOCK.asm(1095): warning: Register r11 already defined by the .DEF directive
                 
                 
                 ;CodeVisionAVR C Compiler V3.12 Advanced
                 ;(C) Copyright 1998-2014 Pavel Haiduc, HP InfoTech s.r.l.
                 ;http://www.hpinfotech.com
                 
                 ;Build configuration    : Debug
                 ;Chip type              : ATmega8
                 ;Program type           : Application
                 ;Clock frequency        : 1.000000 MHz
                 ;Memory model           : Small
                 ;Optimize for           : Size
                 ;(s)printf features     : float, width, precision
                 ;(s)scanf features      : int, width
                 ;External RAM size      : 0
                 ;Data Stack size        : 256 byte(s)
                 ;Heap size              : 0 byte(s)
                 ;Promote 'char' to 'int': Yes
                 ;'char' is unsigned     : Yes
                 ;8 bit enums            : Yes
                 ;Global 'const' stored in FLASH: Yes
                 ;Enhanced function parameter passing: Yes
                 ;Enhanced core instructions: On
                 ;Automatic register allocation for global variables: On
                 ;Smart register allocation: On
                 
                 	#define _MODEL_SMALL_
                 
                 	#pragma AVRPART ADMIN PART_NAME ATmega8
                 	#pragma AVRPART MEMORY PROG_FLASH 8192
                 	#pragma AVRPART MEMORY EEPROM 512
                 	#pragma AVRPART MEMORY INT_SRAM SIZE 1024
                 	#pragma AVRPART MEMORY INT_SRAM START_ADDR 0x60
                 
                 	.LISTMAC
                 	.EQU UDRE=0x5
                 	.EQU RXC=0x7
                 	.EQU USR=0xB
                 	.EQU UDR=0xC
                 	.EQU SPSR=0xE
                 	.EQU SPDR=0xF
                 	.EQU EERE=0x0
                 	.EQU EEWE=0x1
                 	.EQU EEMWE=0x2
                 	.EQU EECR=0x1C
                 	.EQU EEDR=0x1D
                 	.EQU EEARL=0x1E
                 	.EQU EEARH=0x1F
                 	.EQU WDTCR=0x21
                 	.EQU MCUCR=0x35
                 	.EQU GICR=0x3B
                 	.EQU SPL=0x3D
                 	.EQU SPH=0x3E
                 	.EQU SREG=0x3F
                 
                 	.DEF R0X0=R0
                 	.DEF R0X1=R1
                 	.DEF R0X2=R2
                 	.DEF R0X3=R3
                 	.DEF R0X4=R4
                 	.DEF R0X5=R5
                 	.DEF R0X6=R6
                 	.DEF R0X7=R7
                 	.DEF R0X8=R8
                 	.DEF R0X9=R9
                 	.DEF R0XA=R10
                 	.DEF R0XB=R11
                 	.DEF R0XC=R12
                 	.DEF R0XD=R13
                 	.DEF R0XE=R14
                 	.DEF R0XF=R15
                 	.DEF R0X10=R16
                 	.DEF R0X11=R17
                 	.DEF R0X12=R18
                 	.DEF R0X13=R19
                 	.DEF R0X14=R20
                 	.DEF R0X15=R21
                 	.DEF R0X16=R22
                 	.DEF R0X17=R23
                 	.DEF R0X18=R24
                 	.DEF R0X19=R25
                 	.DEF R0X1A=R26
                 	.DEF R0X1B=R27
                 	.DEF R0X1C=R28
                 	.DEF R0X1D=R29
                 	.DEF R0X1E=R30
                 	.DEF R0X1F=R31
                 
                 	.EQU __SRAM_START=0x0060
                 	.EQU __SRAM_END=0x045F
                 	.EQU __DSTACK_SIZE=0x0100
                 	.EQU __HEAP_SIZE=0x0000
                 	.EQU __CLEAR_SRAM_SIZE=__SRAM_END-__SRAM_START+1
                 
                 	.MACRO __CPD1N
                 	CPI  R30,LOW(@0)
                 	LDI  R26,HIGH(@0)
                 	CPC  R31,R26
                 	LDI  R26,BYTE3(@0)
                 	CPC  R22,R26
                 	LDI  R26,BYTE4(@0)
                 	CPC  R23,R26
                 	.ENDM
                 
                 	.MACRO __CPD2N
                 	CPI  R26,LOW(@0)
                 	LDI  R30,HIGH(@0)
                 	CPC  R27,R30
                 	LDI  R30,BYTE3(@0)
                 	CPC  R24,R30
                 	LDI  R30,BYTE4(@0)
                 	CPC  R25,R30
                 	.ENDM
                 
                 	.MACRO __CPWRR
                 	CP   R@0,R@2
                 	CPC  R@1,R@3
                 	.ENDM
                 
                 	.MACRO __CPWRN
                 	CPI  R@0,LOW(@2)
                 	LDI  R30,HIGH(@2)
                 	CPC  R@1,R30
                 	.ENDM
                 
                 	.MACRO __ADDB1MN
                 	SUBI R30,LOW(-@0-(@1))
                 	.ENDM
                 
                 	.MACRO __ADDB2MN
                 	SUBI R26,LOW(-@0-(@1))
                 	.ENDM
                 
                 	.MACRO __ADDW1MN
                 	SUBI R30,LOW(-@0-(@1))
                 	SBCI R31,HIGH(-@0-(@1))
                 	.ENDM
                 
                 	.MACRO __ADDW2MN
                 	SUBI R26,LOW(-@0-(@1))
                 	SBCI R27,HIGH(-@0-(@1))
                 	.ENDM
                 
                 	.MACRO __ADDW1FN
                 	SUBI R30,LOW(-2*@0-(@1))
                 	SBCI R31,HIGH(-2*@0-(@1))
                 	.ENDM
                 
                 	.MACRO __ADDD1FN
                 	SUBI R30,LOW(-2*@0-(@1))
                 	SBCI R31,HIGH(-2*@0-(@1))
                 	SBCI R22,BYTE3(-2*@0-(@1))
                 	.ENDM
                 
                 	.MACRO __ADDD1N
                 	SUBI R30,LOW(-@0)
                 	SBCI R31,HIGH(-@0)
                 	SBCI R22,BYTE3(-@0)
                 	SBCI R23,BYTE4(-@0)
                 	.ENDM
                 
                 	.MACRO __ADDD2N
                 	SUBI R26,LOW(-@0)
                 	SBCI R27,HIGH(-@0)
                 	SBCI R24,BYTE3(-@0)
                 	SBCI R25,BYTE4(-@0)
                 	.ENDM
                 
                 	.MACRO __SUBD1N
                 	SUBI R30,LOW(@0)
                 	SBCI R31,HIGH(@0)
                 	SBCI R22,BYTE3(@0)
                 	SBCI R23,BYTE4(@0)
                 	.ENDM
                 
                 	.MACRO __SUBD2N
                 	SUBI R26,LOW(@0)
                 	SBCI R27,HIGH(@0)
                 	SBCI R24,BYTE3(@0)
                 	SBCI R25,BYTE4(@0)
                 	.ENDM
                 
                 	.MACRO __ANDBMNN
                 	LDS  R30,@0+(@1)
                 	ANDI R30,LOW(@2)
                 	STS  @0+(@1),R30
                 	.ENDM
                 
                 	.MACRO __ANDWMNN
                 	LDS  R30,@0+(@1)
                 	ANDI R30,LOW(@2)
                 	STS  @0+(@1),R30
                 	LDS  R30,@0+(@1)+1
                 	ANDI R30,HIGH(@2)
                 	STS  @0+(@1)+1,R30
                 	.ENDM
                 
                 	.MACRO __ANDD1N
                 	ANDI R30,LOW(@0)
                 	ANDI R31,HIGH(@0)
                 	ANDI R22,BYTE3(@0)
                 	ANDI R23,BYTE4(@0)
                 	.ENDM
                 
                 	.MACRO __ANDD2N
                 	ANDI R26,LOW(@0)
                 	ANDI R27,HIGH(@0)
                 	ANDI R24,BYTE3(@0)
                 	ANDI R25,BYTE4(@0)
                 	.ENDM
                 
                 	.MACRO __ORBMNN
                 	LDS  R30,@0+(@1)
                 	ORI  R30,LOW(@2)
                 	STS  @0+(@1),R30
                 	.ENDM
                 
                 	.MACRO __ORWMNN
                 	LDS  R30,@0+(@1)
                 	ORI  R30,LOW(@2)
                 	STS  @0+(@1),R30
                 	LDS  R30,@0+(@1)+1
                 	ORI  R30,HIGH(@2)
                 	STS  @0+(@1)+1,R30
                 	.ENDM
                 
                 	.MACRO __ORD1N
                 	ORI  R30,LOW(@0)
                 	ORI  R31,HIGH(@0)
                 	ORI  R22,BYTE3(@0)
                 	ORI  R23,BYTE4(@0)
                 	.ENDM
                 
                 	.MACRO __ORD2N
                 	ORI  R26,LOW(@0)
                 	ORI  R27,HIGH(@0)
                 	ORI  R24,BYTE3(@0)
                 	ORI  R25,BYTE4(@0)
                 	.ENDM
                 
                 	.MACRO __DELAY_USB
                 	LDI  R24,LOW(@0)
                 __DELAY_USB_LOOP:
                 	DEC  R24
                 	BRNE __DELAY_USB_LOOP
                 	.ENDM
                 
                 	.MACRO __DELAY_USW
                 	LDI  R24,LOW(@0)
                 	LDI  R25,HIGH(@0)
                 __DELAY_USW_LOOP:
                 	SBIW R24,1
                 	BRNE __DELAY_USW_LOOP
                 	.ENDM
                 
                 	.MACRO __GETD1S
                 	LDD  R30,Y+@0
                 	LDD  R31,Y+@0+1
                 	LDD  R22,Y+@0+2
                 	LDD  R23,Y+@0+3
                 	.ENDM
                 
                 	.MACRO __GETD2S
                 	LDD  R26,Y+@0
                 	LDD  R27,Y+@0+1
                 	LDD  R24,Y+@0+2
                 	LDD  R25,Y+@0+3
                 	.ENDM
                 
                 	.MACRO __PUTD1S
                 	STD  Y+@0,R30
                 	STD  Y+@0+1,R31
                 	STD  Y+@0+2,R22
                 	STD  Y+@0+3,R23
                 	.ENDM
                 
                 	.MACRO __PUTD2S
                 	STD  Y+@0,R26
                 	STD  Y+@0+1,R27
                 	STD  Y+@0+2,R24
                 	STD  Y+@0+3,R25
                 	.ENDM
                 
                 	.MACRO __PUTDZ2
                 	STD  Z+@0,R26
                 	STD  Z+@0+1,R27
                 	STD  Z+@0+2,R24
                 	STD  Z+@0+3,R25
                 	.ENDM
                 
                 	.MACRO __CLRD1S
                 	STD  Y+@0,R30
                 	STD  Y+@0+1,R30
                 	STD  Y+@0+2,R30
                 	STD  Y+@0+3,R30
                 	.ENDM
                 
                 	.MACRO __POINTB1MN
                 	LDI  R30,LOW(@0+(@1))
                 	.ENDM
                 
                 	.MACRO __POINTW1MN
                 	LDI  R30,LOW(@0+(@1))
                 	LDI  R31,HIGH(@0+(@1))
                 	.ENDM
                 
                 	.MACRO __POINTD1M
                 	LDI  R30,LOW(@0)
                 	LDI  R31,HIGH(@0)
                 	LDI  R22,BYTE3(@0)
                 	LDI  R23,BYTE4(@0)
                 	.ENDM
                 
                 	.MACRO __POINTW1FN
                 	LDI  R30,LOW(2*@0+(@1))
                 	LDI  R31,HIGH(2*@0+(@1))
                 	.ENDM
                 
                 	.MACRO __POINTD1FN
                 	LDI  R30,LOW(2*@0+(@1))
                 	LDI  R31,HIGH(2*@0+(@1))
                 	LDI  R22,BYTE3(2*@0+(@1))
                 	LDI  R23,BYTE4(2*@0+(@1))
                 	.ENDM
                 
                 	.MACRO __POINTB2MN
                 	LDI  R26,LOW(@0+(@1))
                 	.ENDM
                 
                 	.MACRO __POINTW2MN
                 	LDI  R26,LOW(@0+(@1))
                 	LDI  R27,HIGH(@0+(@1))
                 	.ENDM
                 
                 	.MACRO __POINTW2FN
                 	LDI  R26,LOW(2*@0+(@1))
                 	LDI  R27,HIGH(2*@0+(@1))
                 	.ENDM
                 
                 	.MACRO __POINTD2FN
                 	LDI  R26,LOW(2*@0+(@1))
                 	LDI  R27,HIGH(2*@0+(@1))
                 	LDI  R24,BYTE3(2*@0+(@1))
                 	LDI  R25,BYTE4(2*@0+(@1))
                 	.ENDM
                 
                 	.MACRO __POINTBRM
                 	LDI  R@0,LOW(@1)
                 	.ENDM
                 
                 	.MACRO __POINTWRM
                 	LDI  R@0,LOW(@2)
                 	LDI  R@1,HIGH(@2)
                 	.ENDM
                 
                 	.MACRO __POINTBRMN
                 	LDI  R@0,LOW(@1+(@2))
                 	.ENDM
                 
                 	.MACRO __POINTWRMN
                 	LDI  R@0,LOW(@2+(@3))
                 	LDI  R@1,HIGH(@2+(@3))
                 	.ENDM
                 
                 	.MACRO __POINTWRFN
                 	LDI  R@0,LOW(@2*2+(@3))
                 	LDI  R@1,HIGH(@2*2+(@3))
                 	.ENDM
                 
                 	.MACRO __GETD1N
                 	LDI  R30,LOW(@0)
                 	LDI  R31,HIGH(@0)
                 	LDI  R22,BYTE3(@0)
                 	LDI  R23,BYTE4(@0)
                 	.ENDM
                 
                 	.MACRO __GETD2N
                 	LDI  R26,LOW(@0)
                 	LDI  R27,HIGH(@0)
                 	LDI  R24,BYTE3(@0)
                 	LDI  R25,BYTE4(@0)
                 	.ENDM
                 
                 	.MACRO __GETB1MN
                 	LDS  R30,@0+(@1)
                 	.ENDM
                 
                 	.MACRO __GETB1HMN
                 	LDS  R31,@0+(@1)
                 	.ENDM
                 
                 	.MACRO __GETW1MN
                 	LDS  R30,@0+(@1)
                 	LDS  R31,@0+(@1)+1
                 	.ENDM
                 
                 	.MACRO __GETD1MN
                 	LDS  R30,@0+(@1)
                 	LDS  R31,@0+(@1)+1
                 	LDS  R22,@0+(@1)+2
                 	LDS  R23,@0+(@1)+3
                 	.ENDM
                 
                 	.MACRO __GETBRMN
                 	LDS  R@0,@1+(@2)
                 	.ENDM
                 
                 	.MACRO __GETWRMN
                 	LDS  R@0,@2+(@3)
                 	LDS  R@1,@2+(@3)+1
                 	.ENDM
                 
                 	.MACRO __GETWRZ
                 	LDD  R@0,Z+@2
                 	LDD  R@1,Z+@2+1
                 	.ENDM
                 
                 	.MACRO __GETD2Z
                 	LDD  R26,Z+@0
                 	LDD  R27,Z+@0+1
                 	LDD  R24,Z+@0+2
                 	LDD  R25,Z+@0+3
                 	.ENDM
                 
                 	.MACRO __GETB2MN
                 	LDS  R26,@0+(@1)
                 	.ENDM
                 
                 	.MACRO __GETW2MN
                 	LDS  R26,@0+(@1)
                 	LDS  R27,@0+(@1)+1
                 	.ENDM
                 
                 	.MACRO __GETD2MN
                 	LDS  R26,@0+(@1)
                 	LDS  R27,@0+(@1)+1
                 	LDS  R24,@0+(@1)+2
                 	LDS  R25,@0+(@1)+3
                 	.ENDM
                 
                 	.MACRO __PUTB1MN
                 	STS  @0+(@1),R30
                 	.ENDM
                 
                 	.MACRO __PUTW1MN
                 	STS  @0+(@1),R30
                 	STS  @0+(@1)+1,R31
                 	.ENDM
                 
                 	.MACRO __PUTD1MN
                 	STS  @0+(@1),R30
                 	STS  @0+(@1)+1,R31
                 	STS  @0+(@1)+2,R22
                 	STS  @0+(@1)+3,R23
                 	.ENDM
                 
                 	.MACRO __PUTB1EN
                 	LDI  R26,LOW(@0+(@1))
                 	LDI  R27,HIGH(@0+(@1))
                 	RCALL __EEPROMWRB
                 	.ENDM
                 
                 	.MACRO __PUTW1EN
                 	LDI  R26,LOW(@0+(@1))
                 	LDI  R27,HIGH(@0+(@1))
                 	RCALL __EEPROMWRW
                 	.ENDM
                 
                 	.MACRO __PUTD1EN
                 	LDI  R26,LOW(@0+(@1))
                 	LDI  R27,HIGH(@0+(@1))
                 	RCALL __EEPROMWRD
                 	.ENDM
                 
                 	.MACRO __PUTBR0MN
                 	STS  @0+(@1),R0
                 	.ENDM
                 
                 	.MACRO __PUTBMRN
                 	STS  @0+(@1),R@2
                 	.ENDM
                 
                 	.MACRO __PUTWMRN
                 	STS  @0+(@1),R@2
                 	STS  @0+(@1)+1,R@3
                 	.ENDM
                 
                 	.MACRO __PUTBZR
                 	STD  Z+@1,R@0
                 	.ENDM
                 
                 	.MACRO __PUTWZR
                 	STD  Z+@2,R@0
                 	STD  Z+@2+1,R@1
                 	.ENDM
                 
                 	.MACRO __GETW1R
                 	MOV  R30,R@0
                 	MOV  R31,R@1
                 	.ENDM
                 
                 	.MACRO __GETW2R
                 	MOV  R26,R@0
                 	MOV  R27,R@1
                 	.ENDM
                 
                 	.MACRO __GETWRN
                 	LDI  R@0,LOW(@2)
                 	LDI  R@1,HIGH(@2)
                 	.ENDM
                 
                 	.MACRO __PUTW1R
                 	MOV  R@0,R30
                 	MOV  R@1,R31
                 	.ENDM
                 
                 	.MACRO __PUTW2R
                 	MOV  R@0,R26
                 	MOV  R@1,R27
                 	.ENDM
                 
                 	.MACRO __ADDWRN
                 	SUBI R@0,LOW(-@2)
                 	SBCI R@1,HIGH(-@2)
                 	.ENDM
                 
                 	.MACRO __ADDWRR
                 	ADD  R@0,R@2
                 	ADC  R@1,R@3
                 	.ENDM
                 
                 	.MACRO __SUBWRN
                 	SUBI R@0,LOW(@2)
                 	SBCI R@1,HIGH(@2)
                 	.ENDM
                 
                 	.MACRO __SUBWRR
                 	SUB  R@0,R@2
                 	SBC  R@1,R@3
                 	.ENDM
                 
                 	.MACRO __ANDWRN
                 	ANDI R@0,LOW(@2)
                 	ANDI R@1,HIGH(@2)
                 	.ENDM
                 
                 	.MACRO __ANDWRR
                 	AND  R@0,R@2
                 	AND  R@1,R@3
                 	.ENDM
                 
                 	.MACRO __ORWRN
                 	ORI  R@0,LOW(@2)
                 	ORI  R@1,HIGH(@2)
                 	.ENDM
                 
                 	.MACRO __ORWRR
                 	OR   R@0,R@2
                 	OR   R@1,R@3
                 	.ENDM
                 
                 	.MACRO __EORWRR
                 	EOR  R@0,R@2
                 	EOR  R@1,R@3
                 	.ENDM
                 
                 	.MACRO __GETWRS
                 	LDD  R@0,Y+@2
                 	LDD  R@1,Y+@2+1
                 	.ENDM
                 
                 	.MACRO __PUTBSR
                 	STD  Y+@1,R@0
                 	.ENDM
                 
                 	.MACRO __PUTWSR
                 	STD  Y+@2,R@0
                 	STD  Y+@2+1,R@1
                 	.ENDM
                 
                 	.MACRO __MOVEWRR
                 	MOV  R@0,R@2
                 	MOV  R@1,R@3
                 	.ENDM
                 
                 	.MACRO __INWR
                 	IN   R@0,@2
                 	IN   R@1,@2+1
                 	.ENDM
                 
                 	.MACRO __OUTWR
                 	OUT  @2+1,R@1
                 	OUT  @2,R@0
                 	.ENDM
                 
                 	.MACRO __CALL1MN
                 	LDS  R30,@0+(@1)
                 	LDS  R31,@0+(@1)+1
                 	ICALL
                 	.ENDM
                 
                 	.MACRO __CALL1FN
                 	LDI  R30,LOW(2*@0+(@1))
                 	LDI  R31,HIGH(2*@0+(@1))
                 	RCALL __GETW1PF
                 	ICALL
                 	.ENDM
                 
                 	.MACRO __CALL2EN
                 	PUSH R26
                 	PUSH R27
                 	LDI  R26,LOW(@0+(@1))
                 	LDI  R27,HIGH(@0+(@1))
                 	RCALL __EEPROMRDW
                 	POP  R27
                 	POP  R26
                 	ICALL
                 	.ENDM
                 
                 	.MACRO __CALL2EX
                 	SUBI R26,LOW(-@0)
                 	SBCI R27,HIGH(-@0)
                 	RCALL __EEPROMRDD
                 	ICALL
                 	.ENDM
                 
                 	.MACRO __GETW1STACK
                 	IN   R30,SPL
                 	IN   R31,SPH
                 	ADIW R30,@0+1
                 	LD   R0,Z+
                 	LD   R31,Z
                 	MOV  R30,R0
                 	.ENDM
                 
                 	.MACRO __GETD1STACK
                 	IN   R30,SPL
                 	IN   R31,SPH
                 	ADIW R30,@0+1
                 	LD   R0,Z+
                 	LD   R1,Z+
                 	LD   R22,Z
                 	MOVW R30,R0
                 	.ENDM
                 
                 	.MACRO __NBST
                 	BST  R@0,@1
                 	IN   R30,SREG
                 	LDI  R31,0x40
                 	EOR  R30,R31
                 	OUT  SREG,R30
                 	.ENDM
                 
                 
                 	.MACRO __PUTB1SN
                 	LDD  R26,Y+@0
                 	LDD  R27,Y+@0+1
                 	SUBI R26,LOW(-@1)
                 	SBCI R27,HIGH(-@1)
                 	ST   X,R30
                 	.ENDM
                 
                 	.MACRO __PUTW1SN
                 	LDD  R26,Y+@0
                 	LDD  R27,Y+@0+1
                 	SUBI R26,LOW(-@1)
                 	SBCI R27,HIGH(-@1)
                 	ST   X+,R30
                 	ST   X,R31
                 	.ENDM
                 
                 	.MACRO __PUTD1SN
                 	LDD  R26,Y+@0
                 	LDD  R27,Y+@0+1
                 	SUBI R26,LOW(-@1)
                 	SBCI R27,HIGH(-@1)
                 	RCALL __PUTDP1
                 	.ENDM
                 
                 	.MACRO __PUTB1SNS
                 	LDD  R26,Y+@0
                 	LDD  R27,Y+@0+1
                 	ADIW R26,@1
                 	ST   X,R30
                 	.ENDM
                 
                 	.MACRO __PUTW1SNS
                 	LDD  R26,Y+@0
                 	LDD  R27,Y+@0+1
                 	ADIW R26,@1
                 	ST   X+,R30
                 	ST   X,R31
                 	.ENDM
                 
                 	.MACRO __PUTD1SNS
                 	LDD  R26,Y+@0
                 	LDD  R27,Y+@0+1
                 	ADIW R26,@1
                 	RCALL __PUTDP1
                 	.ENDM
                 
                 	.MACRO __PUTB1PMN
                 	LDS  R26,@0
                 	LDS  R27,@0+1
                 	SUBI R26,LOW(-@1)
                 	SBCI R27,HIGH(-@1)
                 	ST   X,R30
                 	.ENDM
                 
                 	.MACRO __PUTW1PMN
                 	LDS  R26,@0
                 	LDS  R27,@0+1
                 	SUBI R26,LOW(-@1)
                 	SBCI R27,HIGH(-@1)
                 	ST   X+,R30
                 	ST   X,R31
                 	.ENDM
                 
                 	.MACRO __PUTD1PMN
                 	LDS  R26,@0
                 	LDS  R27,@0+1
                 	SUBI R26,LOW(-@1)
                 	SBCI R27,HIGH(-@1)
                 	RCALL __PUTDP1
                 	.ENDM
                 
                 	.MACRO __PUTB1PMNS
                 	LDS  R26,@0
                 	LDS  R27,@0+1
                 	ADIW R26,@1
                 	ST   X,R30
                 	.ENDM
                 
                 	.MACRO __PUTW1PMNS
                 	LDS  R26,@0
                 	LDS  R27,@0+1
                 	ADIW R26,@1
                 	ST   X+,R30
                 	ST   X,R31
                 	.ENDM
                 
                 	.MACRO __PUTD1PMNS
                 	LDS  R26,@0
                 	LDS  R27,@0+1
                 	ADIW R26,@1
                 	RCALL __PUTDP1
                 	.ENDM
                 
                 	.MACRO __PUTB1RN
                 	MOVW R26,R@0
                 	SUBI R26,LOW(-@1)
                 	SBCI R27,HIGH(-@1)
                 	ST   X,R30
                 	.ENDM
                 
                 	.MACRO __PUTW1RN
                 	MOVW R26,R@0
                 	SUBI R26,LOW(-@1)
                 	SBCI R27,HIGH(-@1)
                 	ST   X+,R30
                 	ST   X,R31
                 	.ENDM
                 
                 	.MACRO __PUTD1RN
                 	MOVW R26,R@0
                 	SUBI R26,LOW(-@1)
                 	SBCI R27,HIGH(-@1)
                 	RCALL __PUTDP1
                 	.ENDM
                 
                 	.MACRO __PUTB1RNS
                 	MOVW R26,R@0
                 	ADIW R26,@1
                 	ST   X,R30
                 	.ENDM
                 
                 	.MACRO __PUTW1RNS
                 	MOVW R26,R@0
                 	ADIW R26,@1
                 	ST   X+,R30
                 	ST   X,R31
                 	.ENDM
                 
                 	.MACRO __PUTD1RNS
                 	MOVW R26,R@0
                 	ADIW R26,@1
                 	RCALL __PUTDP1
                 	.ENDM
                 
                 	.MACRO __PUTB1RON
                 	MOV  R26,R@0
                 	MOV  R27,R@1
                 	SUBI R26,LOW(-@2)
                 	SBCI R27,HIGH(-@2)
                 	ST   X,R30
                 	.ENDM
                 
                 	.MACRO __PUTW1RON
                 	MOV  R26,R@0
                 	MOV  R27,R@1
                 	SUBI R26,LOW(-@2)
                 	SBCI R27,HIGH(-@2)
                 	ST   X+,R30
                 	ST   X,R31
                 	.ENDM
                 
                 	.MACRO __PUTD1RON
                 	MOV  R26,R@0
                 	MOV  R27,R@1
                 	SUBI R26,LOW(-@2)
                 	SBCI R27,HIGH(-@2)
                 	RCALL __PUTDP1
                 	.ENDM
                 
                 	.MACRO __PUTB1RONS
                 	MOV  R26,R@0
                 	MOV  R27,R@1
                 	ADIW R26,@2
                 	ST   X,R30
                 	.ENDM
                 
                 	.MACRO __PUTW1RONS
                 	MOV  R26,R@0
                 	MOV  R27,R@1
                 	ADIW R26,@2
                 	ST   X+,R30
                 	ST   X,R31
                 	.ENDM
                 
                 	.MACRO __PUTD1RONS
                 	MOV  R26,R@0
                 	MOV  R27,R@1
                 	ADIW R26,@2
                 	RCALL __PUTDP1
                 	.ENDM
                 
                 
                 	.MACRO __GETB1SX
                 	MOVW R30,R28
                 	SUBI R30,LOW(-@0)
                 	SBCI R31,HIGH(-@0)
                 	LD   R30,Z
                 	.ENDM
                 
                 	.MACRO __GETB1HSX
                 	MOVW R30,R28
                 	SUBI R30,LOW(-@0)
                 	SBCI R31,HIGH(-@0)
                 	LD   R31,Z
                 	.ENDM
                 
                 	.MACRO __GETW1SX
                 	MOVW R30,R28
                 	SUBI R30,LOW(-@0)
                 	SBCI R31,HIGH(-@0)
                 	LD   R0,Z+
                 	LD   R31,Z
                 	MOV  R30,R0
                 	.ENDM
                 
                 	.MACRO __GETD1SX
                 	MOVW R30,R28
                 	SUBI R30,LOW(-@0)
                 	SBCI R31,HIGH(-@0)
                 	LD   R0,Z+
                 	LD   R1,Z+
                 	LD   R22,Z+
                 	LD   R23,Z
                 	MOVW R30,R0
                 	.ENDM
                 
                 	.MACRO __GETB2SX
                 	MOVW R26,R28
                 	SUBI R26,LOW(-@0)
                 	SBCI R27,HIGH(-@0)
                 	LD   R26,X
                 	.ENDM
                 
                 	.MACRO __GETW2SX
                 	MOVW R26,R28
                 	SUBI R26,LOW(-@0)
                 	SBCI R27,HIGH(-@0)
                 	LD   R0,X+
                 	LD   R27,X
                 	MOV  R26,R0
                 	.ENDM
                 
                 	.MACRO __GETD2SX
                 	MOVW R26,R28
                 	SUBI R26,LOW(-@0)
                 	SBCI R27,HIGH(-@0)
                 	LD   R0,X+
                 	LD   R1,X+
                 	LD   R24,X+
                 	LD   R25,X
                 	MOVW R26,R0
                 	.ENDM
                 
                 	.MACRO __GETBRSX
                 	MOVW R30,R28
                 	SUBI R30,LOW(-@1)
                 	SBCI R31,HIGH(-@1)
                 	LD   R@0,Z
                 	.ENDM
                 
                 	.MACRO __GETWRSX
                 	MOVW R30,R28
                 	SUBI R30,LOW(-@2)
                 	SBCI R31,HIGH(-@2)
                 	LD   R@0,Z+
                 	LD   R@1,Z
                 	.ENDM
                 
                 	.MACRO __GETBRSX2
                 	MOVW R26,R28
                 	SUBI R26,LOW(-@1)
                 	SBCI R27,HIGH(-@1)
                 	LD   R@0,X
                 	.ENDM
                 
                 	.MACRO __GETWRSX2
                 	MOVW R26,R28
                 	SUBI R26,LOW(-@2)
                 	SBCI R27,HIGH(-@2)
                 	LD   R@0,X+
                 	LD   R@1,X
                 	.ENDM
                 
                 	.MACRO __LSLW8SX
                 	MOVW R30,R28
                 	SUBI R30,LOW(-@0)
                 	SBCI R31,HIGH(-@0)
                 	LD   R31,Z
                 	CLR  R30
                 	.ENDM
                 
                 	.MACRO __PUTB1SX
                 	MOVW R26,R28
                 	SUBI R26,LOW(-@0)
                 	SBCI R27,HIGH(-@0)
                 	ST   X,R30
                 	.ENDM
                 
                 	.MACRO __PUTW1SX
                 	MOVW R26,R28
                 	SUBI R26,LOW(-@0)
                 	SBCI R27,HIGH(-@0)
                 	ST   X+,R30
                 	ST   X,R31
                 	.ENDM
                 
                 	.MACRO __PUTD1SX
                 	MOVW R26,R28
                 	SUBI R26,LOW(-@0)
                 	SBCI R27,HIGH(-@0)
                 	ST   X+,R30
                 	ST   X+,R31
                 	ST   X+,R22
                 	ST   X,R23
                 	.ENDM
                 
                 	.MACRO __CLRW1SX
                 	MOVW R26,R28
                 	SUBI R26,LOW(-@0)
                 	SBCI R27,HIGH(-@0)
                 	ST   X+,R30
                 	ST   X,R30
                 	.ENDM
                 
                 	.MACRO __CLRD1SX
                 	MOVW R26,R28
                 	SUBI R26,LOW(-@0)
                 	SBCI R27,HIGH(-@0)
                 	ST   X+,R30
                 	ST   X+,R30
                 	ST   X+,R30
                 	ST   X,R30
                 	.ENDM
                 
                 	.MACRO __PUTB2SX
                 	MOVW R30,R28
                 	SUBI R30,LOW(-@0)
                 	SBCI R31,HIGH(-@0)
                 	ST   Z,R26
                 	.ENDM
                 
                 	.MACRO __PUTW2SX
                 	MOVW R30,R28
                 	SUBI R30,LOW(-@0)
                 	SBCI R31,HIGH(-@0)
                 	ST   Z+,R26
                 	ST   Z,R27
                 	.ENDM
                 
                 	.MACRO __PUTD2SX
                 	MOVW R30,R28
                 	SUBI R30,LOW(-@0)
                 	SBCI R31,HIGH(-@0)
                 	ST   Z+,R26
                 	ST   Z+,R27
                 	ST   Z+,R24
                 	ST   Z,R25
                 	.ENDM
                 
                 	.MACRO __PUTBSRX
                 	MOVW R30,R28
                 	SUBI R30,LOW(-@1)
                 	SBCI R31,HIGH(-@1)
                 	ST   Z,R@0
                 	.ENDM
                 
                 	.MACRO __PUTWSRX
                 	MOVW R30,R28
                 	SUBI R30,LOW(-@2)
                 	SBCI R31,HIGH(-@2)
                 	ST   Z+,R@0
                 	ST   Z,R@1
                 	.ENDM
                 
                 	.MACRO __PUTB1SNX
                 	MOVW R26,R28
                 	SUBI R26,LOW(-@0)
                 	SBCI R27,HIGH(-@0)
                 	LD   R0,X+
                 	LD   R27,X
                 	MOV  R26,R0
                 	SUBI R26,LOW(-@1)
                 	SBCI R27,HIGH(-@1)
                 	ST   X,R30
                 	.ENDM
                 
                 	.MACRO __PUTW1SNX
                 	MOVW R26,R28
                 	SUBI R26,LOW(-@0)
                 	SBCI R27,HIGH(-@0)
                 	LD   R0,X+
                 	LD   R27,X
                 	MOV  R26,R0
                 	SUBI R26,LOW(-@1)
                 	SBCI R27,HIGH(-@1)
                 	ST   X+,R30
                 	ST   X,R31
                 	.ENDM
                 
                 	.MACRO __PUTD1SNX
                 	MOVW R26,R28
                 	SUBI R26,LOW(-@0)
                 	SBCI R27,HIGH(-@0)
                 	LD   R0,X+
                 	LD   R27,X
                 	MOV  R26,R0
                 	SUBI R26,LOW(-@1)
                 	SBCI R27,HIGH(-@1)
                 	ST   X+,R30
                 	ST   X+,R31
                 	ST   X+,R22
                 	ST   X,R23
                 	.ENDM
                 
                 	.MACRO __MULBRR
                 	MULS R@0,R@1
                 	MOVW R30,R0
                 	.ENDM
                 
                 	.MACRO __MULBRRU
                 	MUL  R@0,R@1
                 	MOVW R30,R0
                 	.ENDM
                 
                 	.MACRO __MULBRR0
                 	MULS R@0,R@1
                 	.ENDM
                 
                 	.MACRO __MULBRRU0
                 	MUL  R@0,R@1
                 	.ENDM
                 
                 	.MACRO __MULBNWRU
                 	LDI  R26,@2
                 	MUL  R26,R@0
                 	MOVW R30,R0
                 	MUL  R26,R@1
                 	ADD  R31,R0
                 	.ENDM
                 
                 ;NAME DEFINITIONS FOR GLOBAL VARIABLES ALLOCATED TO REGISTERS
                 	.DEF _hour=R4
                 	.DEF _minn=R3
                 	.DEF _sec=R6
                 	.DEF _day=R5
                 	.DEF _date=R8
                 	.DEF _month=R7
                 	.DEF _year=R10
                 	.DEF _No_date=R9
                 	.DEF _mode=R12
                 	.DEF _time=R11
                 
                 	.CSEG
                 	.ORG 0x00
                 
                 ;START OF CODE MARKER
                 __START_OF_CODE:
                 
                 ;INTERRUPT VECTORS
000000 c268      	RJMP __RESET
000001 c29d      	RJMP _ext_int0_isr
000002 c2a3      	RJMP _ext_int1_isr
000003 cffc      	RJMP 0x00
000004 cffb      	RJMP 0x00
000005 cffa      	RJMP 0x00
000006 cff9      	RJMP 0x00
000007 cff8      	RJMP 0x00
000008 c2cd      	RJMP _timer1_ovf_isr
000009 c2c3      	RJMP _timer0_ovf_isr
00000a cff5      	RJMP 0x00
00000b cff4      	RJMP 0x00
00000c cff3      	RJMP 0x00
00000d cff2      	RJMP 0x00
00000e cff1      	RJMP 0x00
00000f cff0      	RJMP 0x00
000010 cfef      	RJMP 0x00
000011 cfee      	RJMP 0x00
000012 cfed      	RJMP 0x00
                 
                 _font5x7:
000013 0705
000014 6020
000015 0000
000016 0000      	.DB  0x5,0x7,0x20,0x60,0x0,0x0,0x0,0x0
000017 0000
000018 0400
000019 0404
00001a 0404      	.DB  0x0,0x0,0x0,0x4,0x4,0x4,0x4,0x4
00001b 0400
00001c 0a0a
00001d 000a
00001e 0000      	.DB  0x0,0x4,0xA,0xA,0xA,0x0,0x0,0x0
00001f 0a00
000020 1f0a
000021 1f0a
000022 0a0a      	.DB  0x0,0xA,0xA,0x1F,0xA,0x1F,0xA,0xA
000023 1e04
000024 0e05
000025 0f14
000026 0304      	.DB  0x4,0x1E,0x5,0xE,0x14,0xF,0x4,0x3
000027 0813
000028 0204
000029 1819
00002a 0906      	.DB  0x13,0x8,0x4,0x2,0x19,0x18,0x6,0x9
00002b 0205
00002c 0915
00002d 0616
00002e 0204      	.DB  0x5,0x2,0x15,0x9,0x16,0x6,0x4,0x2
00002f 0000
000030 0000
000031 0408
000032 0202      	.DB  0x0,0x0,0x0,0x0,0x8,0x4,0x2,0x2
000033 0402
000034 0208
000035 0804
000036 0808      	.DB  0x2,0x4,0x8,0x2,0x4,0x8,0x8,0x8
000037 0204
000038 0a00
000039 1f04
00003a 0a04      	.DB  0x4,0x2,0x0,0xA,0x4,0x1F,0x4,0xA
00003b 0000
00003c 0404
00003d 041f
00003e 0004      	.DB  0x0,0x0,0x4,0x4,0x1F,0x4,0x4,0x0
00003f 0000
000040 0000
000041 0406
000042 0002      	.DB  0x0,0x0,0x0,0x0,0x6,0x4,0x2,0x0
000043 0000
000044 001f
000045 0000
000046 0000      	.DB  0x0,0x0,0x1F,0x0,0x0,0x0,0x0,0x0
000047 0000
000048 0606
000049 0000
00004a 0810      	.DB  0x0,0x0,0x6,0x6,0x0,0x0,0x10,0x8
00004b 0204
00004c 0001
00004d 110e
00004e 1519      	.DB  0x4,0x2,0x1,0x0,0xE,0x11,0x19,0x15
00004f 1113
000050 040e
000051 0406
000052 0404      	.DB  0x13,0x11,0xE,0x4,0x6,0x4,0x4,0x4
000053 0e04
000054 110e
000055 0810
000056 0204      	.DB  0x4,0xE,0xE,0x11,0x10,0x8,0x4,0x2
000057 1f1f
000058 0408
000059 1008
00005a 0e11      	.DB  0x1F,0x1F,0x8,0x4,0x8,0x10,0x11,0xE
00005b 0c08
00005c 090a
00005d 081f
00005e 1f08      	.DB  0x8,0xC,0xA,0x9,0x1F,0x8,0x8,0x1F
00005f 0f01
000060 1010
000061 0e11
000062 020c      	.DB  0x1,0xF,0x10,0x10,0x11,0xE,0xC,0x2
000063 0f01
000064 1111
000065 1f0e
000066 0810      	.DB  0x1,0xF,0x11,0x11,0xE,0x1F,0x10,0x8
000067 0204
000068 0202
000069 110e
00006a 0e11      	.DB  0x4,0x2,0x2,0x2,0xE,0x11,0x11,0xE
00006b 1111
00006c 0e0e
00006d 1111
00006e 101e      	.DB  0x11,0x11,0xE,0xE,0x11,0x11,0x1E,0x10
00006f 0608
000070 0600
000071 0006
000072 0606      	.DB  0x8,0x6,0x0,0x6,0x6,0x0,0x6,0x6
000073 0000
000074 0606
000075 0600
000076 0204      	.DB  0x0,0x0,0x6,0x6,0x0,0x6,0x4,0x2
000077 0810
000078 0204
000079 0804
00007a 0010      	.DB  0x10,0x8,0x4,0x2,0x4,0x8,0x10,0x0
00007b 1f00
00007c 1f00
00007d 0000
00007e 0201      	.DB  0x0,0x1F,0x0,0x1F,0x0,0x0,0x1,0x2
00007f 0804
000080 0204
000081 0e01
000082 1011      	.DB  0x4,0x8,0x4,0x2,0x1,0xE,0x11,0x10
000083 0408
000084 0400
000085 110e
000086 1610      	.DB  0x8,0x4,0x0,0x4,0xE,0x11,0x10,0x16
000087 1515
000088 0e0e
000089 1111
00008a 1f11      	.DB  0x15,0x15,0xE,0xE,0x11,0x11,0x11,0x1F
00008b 1111
00008c 110f
00008d 0f11
00008e 1111      	.DB  0x11,0x11,0xF,0x11,0x11,0xF,0x11,0x11
00008f 0e0f
000090 0111
000091 0101
000092 0e11      	.DB  0xF,0xE,0x11,0x1,0x1,0x1,0x11,0xE
000093 0907
000094 1111
000095 0911
000096 1f07      	.DB  0x7,0x9,0x11,0x11,0x11,0x9,0x7,0x1F
000097 0101
000098 010f
000099 1f01
00009a 011f      	.DB  0x1,0x1,0xF,0x1,0x1,0x1F,0x1F,0x1
00009b 0701
00009c 0101
00009d 0e01
00009e 0111      	.DB  0x1,0x7,0x1,0x1,0x1,0xE,0x11,0x1
00009f 1901
0000a0 0e11
0000a1 1111
0000a2 1f11      	.DB  0x1,0x19,0x11,0xE,0x11,0x11,0x11,0x1F
0000a3 1111
0000a4 0e11
0000a5 0404
0000a6 0404      	.DB  0x11,0x11,0x11,0xE,0x4,0x4,0x4,0x4
0000a7 0e04
0000a8 081c
0000a9 0808
0000aa 0908      	.DB  0x4,0xE,0x1C,0x8,0x8,0x8,0x8,0x9
0000ab 1106
0000ac 0509
0000ad 0503
0000ae 1109      	.DB  0x6,0x11,0x9,0x5,0x3,0x5,0x9,0x11
0000af 0101
0000b0 0101
0000b1 0101
0000b2 111f      	.DB  0x1,0x1,0x1,0x1,0x1,0x1,0x1F,0x11
0000b3 151b
0000b4 1111
0000b5 1111
0000b6 1111      	.DB  0x1B,0x15,0x11,0x11,0x11,0x11,0x11,0x11
0000b7 1513
0000b8 1119
0000b9 0e11
0000ba 1111      	.DB  0x13,0x15,0x19,0x11,0x11,0xE,0x11,0x11
0000bb 1111
0000bc 0e11
0000bd 110f
0000be 0f11      	.DB  0x11,0x11,0x11,0xE,0xF,0x11,0x11,0xF
0000bf 0101
0000c0 0e01
0000c1 1111
0000c2 1511      	.DB  0x1,0x1,0x1,0xE,0x11,0x11,0x11,0x15
0000c3 1609
0000c4 110f
0000c5 0f11
0000c6 0905      	.DB  0x9,0x16,0xF,0x11,0x11,0xF,0x5,0x9
0000c7 1e11
0000c8 0101
0000c9 100e
0000ca 0f10      	.DB  0x11,0x1E,0x1,0x1,0xE,0x10,0x10,0xF
0000cb 041f
0000cc 0404
0000cd 0404
0000ce 1104      	.DB  0x1F,0x4,0x4,0x4,0x4,0x4,0x4,0x11
0000cf 1111
0000d0 1111
0000d1 0e11
0000d2 1111      	.DB  0x11,0x11,0x11,0x11,0x11,0xE,0x11,0x11
0000d3 1111
0000d4 0a11
0000d5 1104
0000d6 1111      	.DB  0x11,0x11,0x11,0xA,0x4,0x11,0x11,0x11
0000d7 1515
0000d8 111b
0000d9 1111
0000da 040a      	.DB  0x15,0x15,0x1B,0x11,0x11,0x11,0xA,0x4
0000db 110a
0000dc 1111
0000dd 0a11
0000de 0404      	.DB  0xA,0x11,0x11,0x11,0x11,0xA,0x4,0x4
0000df 0404
0000e0 101f
0000e1 0408
0000e2 0102      	.DB  0x4,0x4,0x1F,0x10,0x8,0x4,0x2,0x1
0000e3 1c1f
0000e4 0404
0000e5 0404
0000e6 1c04      	.DB  0x1F,0x1C,0x4,0x4,0x4,0x4,0x4,0x1C
0000e7 0100
0000e8 0402
0000e9 1008
0000ea 0700      	.DB  0x0,0x1,0x2,0x4,0x8,0x10,0x0,0x7
0000eb 0404
0000ec 0404
0000ed 0704
0000ee 0a04      	.DB  0x4,0x4,0x4,0x4,0x4,0x7,0x4,0xA
0000ef 0011
0000f0 0000
0000f1 0000
0000f2 0000      	.DB  0x11,0x0,0x0,0x0,0x0,0x0,0x0,0x0
0000f3 0000
0000f4 1f00
0000f5 0402
0000f6 0008      	.DB  0x0,0x0,0x0,0x1F,0x2,0x4,0x8,0x0
0000f7 0000
0000f8 0000
0000f9 0e00
0000fa 1e10      	.DB  0x0,0x0,0x0,0x0,0x0,0xE,0x10,0x1E
0000fb 1e11
0000fc 0101
0000fd 130d
0000fe 1111      	.DB  0x11,0x1E,0x1,0x1,0xD,0x13,0x11,0x11
0000ff 000f
000100 0e00
000101 0101
000102 0e11      	.DB  0xF,0x0,0x0,0xE,0x1,0x1,0x11,0xE
000103 1010
000104 1916
000105 1111
000106 001e      	.DB  0x10,0x10,0x16,0x19,0x11,0x11,0x1E,0x0
000107 0e00
000108 1f11
000109 0e01
00010a 120c      	.DB  0x0,0xE,0x11,0x1F,0x1,0xE,0xC,0x12
00010b 0702
00010c 0202
00010d 0002
00010e 1e00      	.DB  0x2,0x7,0x2,0x2,0x2,0x0,0x0,0x1E
00010f 1e11
000110 0c10
000111 0101
000112 130d      	.DB  0x11,0x1E,0x10,0xC,0x1,0x1,0xD,0x13
000113 1111
000114 0411
000115 0600
000116 0404      	.DB  0x11,0x11,0x11,0x4,0x0,0x6,0x4,0x4
000117 0e04
000118 0008
000119 080c
00011a 0908      	.DB  0x4,0xE,0x8,0x0,0xC,0x8,0x8,0x9
00011b 0206
00011c 1202
00011d 060a
00011e 120a      	.DB  0x6,0x2,0x2,0x12,0xA,0x6,0xA,0x12
00011f 0406
000120 0404
000121 0404
000122 000e      	.DB  0x6,0x4,0x4,0x4,0x4,0x4,0xE,0x0
000123 0b00
000124 1515
000125 1111
000126 0000      	.DB  0x0,0xB,0x15,0x15,0x11,0x11,0x0,0x0
000127 130d
000128 1111
000129 0011
00012a 0e00      	.DB  0xD,0x13,0x11,0x11,0x11,0x0,0x0,0xE
00012b 1111
00012c 0e11
00012d 0000
00012e 110f      	.DB  0x11,0x11,0x11,0xE,0x0,0x0,0xF,0x11
00012f 010f
000130 0001
000131 1600
000132 1e19      	.DB  0xF,0x1,0x1,0x0,0x0,0x16,0x19,0x1E
000133 1010
000134 0000
000135 130d
000136 0101      	.DB  0x10,0x10,0x0,0x0,0xD,0x13,0x1,0x1
000137 0001
000138 0e00
000139 0e01
00013a 0f10      	.DB  0x1,0x0,0x0,0xE,0x1,0xE,0x10,0xF
00013b 0202
00013c 0207
00013d 1202
00013e 000c      	.DB  0x2,0x2,0x7,0x2,0x2,0x12,0xC,0x0
00013f 1100
000140 1111
000141 1619
000142 0000      	.DB  0x0,0x11,0x11,0x11,0x19,0x16,0x0,0x0
000143 1111
000144 0a11
000145 0004
000146 1100      	.DB  0x11,0x11,0x11,0xA,0x4,0x0,0x0,0x11
000147 1511
000148 0a15
000149 0000
00014a 0a11      	.DB  0x11,0x15,0x15,0xA,0x0,0x0,0x11,0xA
00014b 0a04
00014c 0011
00014d 1100
00014e 1e11      	.DB  0x4,0xA,0x11,0x0,0x0,0x11,0x11,0x1E
00014f 0e10
000150 0000
000151 081f
000152 0204      	.DB  0x10,0xE,0x0,0x0,0x1F,0x8,0x4,0x2
000153 081f
000154 0404
000155 0402
000156 0804      	.DB  0x1F,0x8,0x4,0x4,0x2,0x4,0x4,0x8
000157 0404
000158 0404
000159 0404
00015a 0204      	.DB  0x4,0x4,0x4,0x4,0x4,0x4,0x4,0x2
00015b 0404
00015c 0408
00015d 0204
00015e 1502      	.DB  0x4,0x4,0x8,0x4,0x4,0x2,0x2,0x15
00015f 0008
000160 0000
000161 1f00
000162 1111      	.DB  0x8,0x0,0x0,0x0,0x0,0x1F,0x11,0x11
000163 1111
000164 1f11      	.DB  0x11,0x11,0x11,0x1F
                 _fontNumber:
000165 0d08
000166 0d2e
000167 0000
000168 0000      	.DB  0x8,0xD,0x2E,0xD,0x0,0x0,0x0,0x0
000169 0000
00016a 0000
00016b 0000
00016c 0000      	.DB  0x0,0x0,0x0,0x0,0x0,0x0,0x0,0x0
00016d 0000
00016e 4040
00016f 2020
000170 1010      	.DB  0x0,0x0,0x40,0x40,0x20,0x20,0x10,0x10
000171 0808
000172 0404
000173 0202
000174 7f00      	.DB  0x8,0x8,0x4,0x4,0x2,0x2,0x0,0x7F
000175 637f
000176 6363
000177 6363
000178 6363      	.DB  0x7F,0x63,0x63,0x63,0x63,0x63,0x63,0x63
000179 7f63
00017a 007f
00017b 1c1c
00017c 1818      	.DB  0x63,0x7F,0x7F,0x0,0x1C,0x1C,0x18,0x18
00017d 1818
00017e 1818
00017f 1818
000180 1818      	.DB  0x18,0x18,0x18,0x18,0x18,0x18,0x18,0x18
000181 7f00
000182 607f
000183 6060
000184 7f7f      	.DB  0x0,0x7F,0x7F,0x60,0x60,0x60,0x7F,0x7F
000185 0303
000186 7f03
000187 007f
000188 7f7f      	.DB  0x3,0x3,0x3,0x7F,0x7F,0x0,0x7F,0x7F
000189 6060
00018a 7f60
00018b 607f
00018c 6060      	.DB  0x60,0x60,0x60,0x7F,0x7F,0x60,0x60,0x60
00018d 7f7f
00018e 6300
00018f 6363
000190 6363      	.DB  0x7F,0x7F,0x0,0x63,0x63,0x63,0x63,0x63
000191 7f7f
000192 6060
000193 6060
000194 0060      	.DB  0x7F,0x7F,0x60,0x60,0x60,0x60,0x60,0x0
000195 7f7f
000196 0303
000197 7f03
000198 607f      	.DB  0x7F,0x7F,0x3,0x3,0x3,0x7F,0x7F,0x60
000199 6060
00019a 7f7f
00019b 7f00
00019c 037f      	.DB  0x60,0x60,0x7F,0x7F,0x0,0x7F,0x7F,0x3
00019d 0303
00019e 7f7f
00019f 6363
0001a0 7f63      	.DB  0x3,0x3,0x7F,0x7F,0x63,0x63,0x63,0x7F
0001a1 007f
0001a2 7f7f
0001a3 6060
0001a4 6060      	.DB  0x7F,0x0,0x7F,0x7F,0x60,0x60,0x60,0x60
0001a5 6060
0001a6 6060
0001a7 6060
0001a8 7f00      	.DB  0x60,0x60,0x60,0x60,0x60,0x60,0x0,0x7F
0001a9 637f
0001aa 6363
0001ab 7f7f
0001ac 6363      	.DB  0x7F,0x63,0x63,0x63,0x7F,0x7F,0x63,0x63
0001ad 7f63
0001ae 007f
0001af 7f7f
0001b0 6363      	.DB  0x63,0x7F,0x7F,0x0,0x7F,0x7F,0x63,0x63
0001b1 7f63
0001b2 607f
0001b3 6060
0001b4 7f7f      	.DB  0x63,0x7F,0x7F,0x60,0x60,0x60,0x7F,0x7F
0001b5 0000
0001b6 0000
0001b7 1818
0001b8 0000      	.DB  0x0,0x0,0x0,0x0,0x18,0x18,0x0,0x0
0001b9 1818
0001ba 0000
E:\TAM\K\GITHUB\AVR\AD_KIT_GLCD_CLOCK\Debug\List\SCLOCK.asm(1232): warning: .cseg .db misalignment - padding zero byte
0001bb 0000      	.DB  0x18,0x18,0x0,0x0,0x0
                 __glcd_mask:
0001bc 0100
0001bd 0703
0001be 1f0f
0001bf 7f3f      	.DB  0x0,0x1,0x3,0x7,0xF,0x1F,0x3F,0x7F
E:\TAM\K\GITHUB\AVR\AD_KIT_GLCD_CLOCK\Debug\List\SCLOCK.asm(1235): warning: .cseg .db misalignment - padding zero byte
0001c0 00ff      	.DB  0xFF
                 _st7920_init_4bit_G100:
0001c1 0303
0001c2 0002
0001c3 0002      	.DB  0x3,0x3,0x2,0x0,0x2,0x0
                 _st7920_base_y_G100:
0001c4 9080
0001c5 9888      	.DB  0x80,0x90,0x88,0x98
                 
                 ;REGISTER BIT VARIABLES INITIALIZATION
                 __REG_BIT_VARS:
0001c6 0000      	.DW  0x0000
                 
                 _0x0:
0001c7 3225
0001c8 302e
0001c9 0066
0001ca 006f      	.DB  0x25,0x32,0x2E,0x30,0x66,0x0,0x6F,0x0
0001cb 0043
0001cc 0025
0001cd 003a
0001ce 2e2e      	.DB  0x43,0x0,0x25,0x0,0x3A,0x0,0x2E,0x2E
0001cf 2f00
0001d0 2000
0001d1 0020
0001d2 4e43      	.DB  0x0,0x2F,0x0,0x20,0x20,0x0,0x43,0x4E
0001d3 002d
0001d4 3254
0001d5 002d
0001d6 3354      	.DB  0x2D,0x0,0x54,0x32,0x2D,0x0,0x54,0x33
0001d7 002d
0001d8 3454
0001d9 002d
0001da 3554      	.DB  0x2D,0x0,0x54,0x34,0x2D,0x0,0x54,0x35
0001db 002d
0001dc 3654
0001dd 002d
0001de 3754      	.DB  0x2D,0x0,0x54,0x36,0x2D,0x0,0x54,0x37
0001df 002d      	.DB  0x2D,0x0
                 _0x20C0000:
0001e0 4e2d
0001e1 4e41
E:\TAM\K\GITHUB\AVR\AD_KIT_GLCD_CLOCK\Debug\List\SCLOCK.asm(1254): warning: .cseg .db misalignment - padding zero byte
0001e2 0000      	.DB  0x2D,0x4E,0x41,0x4E,0x0
                 _0x20E0003:
0001e3 000d
0001e4 000d
0001e5 0000
0001e6 01c0      	.DB  0xD,0x0,0xD,0x0,0x0,0x0,0xC0,0x1
0001e7 02f0
0001e8 0078
0001e9 0078
0001ea 003c      	.DB  0xF0,0x2,0x78,0x0,0x78,0x0,0x3C,0x0
0001eb 003c
0001ec 0078
0001ed 0078
0001ee 02f0      	.DB  0x3C,0x0,0x78,0x0,0x78,0x0,0xF0,0x2
0001ef 01c0      	.DB  0xC0,0x1
                 _0x2100003:
0001f0 000d
0001f1 000d
0001f2 0040
0001f3 0842      	.DB  0xD,0x0,0xD,0x0,0x40,0x0,0x42,0x8
0001f4 0404
0001f5 00e0
0001f6 01f0
0001f7 03f8      	.DB  0x4,0x4,0xE0,0x0,0xF0,0x1,0xF8,0x3
0001f8 1bfb
0001f9 03f8
0001fa 01f0
0001fb 00e0      	.DB  0xFB,0x1B,0xF8,0x3,0xF0,0x1,0xE0,0x0
0001fc 0404
0001fd 0842
E:\TAM\K\GITHUB\AVR\AD_KIT_GLCD_CLOCK\Debug\List\SCLOCK.asm(1264): warning: .cseg .db misalignment - padding zero byte
0001fe 0040      	.DB  0x4,0x4,0x42,0x8,0x40
                 _0x2120003:
0001ff 0008
000200 0008
000201 1e0d
000202 ff3f      	.DB  0x8,0x0,0x8,0x0,0xD,0x1E,0x3F,0xFF
000203 1c7e
000204 48d8      	.DB  0x7E,0x1C,0xD8,0x48
                 _0x2140003:
000205 0008
000206 0008
000207 528d
000208 d121      	.DB  0x8,0x0,0x8,0x0,0x8D,0x52,0x21,0xD1
000209 146a
00020a 49da      	.DB  0x6A,0x14,0xDA,0x49
                 _0x2200060:
E:\TAM\K\GITHUB\AVR\AD_KIT_GLCD_CLOCK\Debug\List\SCLOCK.asm(1272): warning: .cseg .db misalignment - padding zero byte
00020b 0001      	.DB  0x1
                 _0x2200000:
00020c 4e2d
00020d 4e41
00020e 4900
00020f 464e      	.DB  0x2D,0x4E,0x41,0x4E,0x0,0x49,0x4E,0x46
E:\TAM\K\GITHUB\AVR\AD_KIT_GLCD_CLOCK\Debug\List\SCLOCK.asm(1275): warning: .cseg .db misalignment - padding zero byte
000210 0000      	.DB  0x0
                 
                 __GLOBAL_INI_TBL:
000211 0001      	.DW  0x01
000212 0002      	.DW  0x02
000213 038c      	.DW  __REG_BIT_VARS*2
                 
000214 0002      	.DW  0x02
000215 0160      	.DW  _0x5
000216 0394      	.DW  _0x0*2+6
                 
000217 0002      	.DW  0x02
000218 0162      	.DW  _0x5+2
000219 0396      	.DW  _0x0*2+8
                 
00021a 0002      	.DW  0x02
00021b 0164      	.DW  _0x5+4
00021c 0398      	.DW  _0x0*2+10
                 
00021d 0002      	.DW  0x02
00021e 0166      	.DW  _0x6
00021f 039a      	.DW  _0x0*2+12
                 
000220 0003      	.DW  0x03
000221 0168      	.DW  _0x6+2
000222 039c      	.DW  _0x0*2+14
                 
000223 0003      	.DW  0x03
000224 016b      	.DW  _0x6+5
000225 039c      	.DW  _0x0*2+14
                 
000226 0002      	.DW  0x02
000227 016e      	.DW  _0x6+8
000228 039d      	.DW  _0x0*2+15
                 
000229 0002      	.DW  0x02
00022a 0170      	.DW  _0x10
00022b 039f      	.DW  _0x0*2+17
                 
00022c 0002      	.DW  0x02
00022d 0172      	.DW  _0x10+2
00022e 039f      	.DW  _0x0*2+17
                 
00022f 0003      	.DW  0x03
000230 0174      	.DW  _0x10+4
000231 03a1      	.DW  _0x0*2+19
                 
000232 0003      	.DW  0x03
000233 0177      	.DW  _0x10+7
000234 03a1      	.DW  _0x0*2+19
                 
000235 0003      	.DW  0x03
000236 017a      	.DW  _0x10+10
000237 03a1      	.DW  _0x0*2+19
                 
000238 0004      	.DW  0x04
000239 017d      	.DW  _0x42
00023a 03a4      	.DW  _0x0*2+22
                 
00023b 0004      	.DW  0x04
00023c 0181      	.DW  _0x42+4
00023d 03a8      	.DW  _0x0*2+26
                 
00023e 0004      	.DW  0x04
00023f 0185      	.DW  _0x42+8
000240 03ac      	.DW  _0x0*2+30
                 
000241 0004      	.DW  0x04
000242 0189      	.DW  _0x42+12
000243 03b0      	.DW  _0x0*2+34
                 
000244 0004      	.DW  0x04
000245 018d      	.DW  _0x42+16
000246 03b4      	.DW  _0x0*2+38
                 
000247 0004      	.DW  0x04
000248 0191      	.DW  _0x42+20
000249 03b8      	.DW  _0x0*2+42
                 
00024a 0004      	.DW  0x04
00024b 0195      	.DW  _0x42+24
00024c 03bc      	.DW  _0x0*2+46
                 
00024d 0002      	.DW  0x02
00024e 0199      	.DW  _0x4A
00024f 039a      	.DW  _0x0*2+12
                 
000250 0003      	.DW  0x03
000251 019b      	.DW  _0x4A+2
000252 03a1      	.DW  _0x0*2+19
                 
000253 0003      	.DW  0x03
000254 019e      	.DW  _0x4A+5
000255 03a1      	.DW  _0x0*2+19
                 
000256 0003      	.DW  0x03
000257 01a1      	.DW  _0x4A+8
000258 03a1      	.DW  _0x0*2+19
                 
000259 001a      	.DW  0x1A
00025a 01c1      	.DW  _moon
00025b 03c6      	.DW  _0x20E0003*2
                 
00025c 001d      	.DW  0x1D
00025d 01df      	.DW  _sun
00025e 03e0      	.DW  _0x2100003*2
                 
00025f 000c      	.DW  0x0C
000260 01fd      	.DW  _alarm_on
000261 03fe      	.DW  _0x2120003*2
                 
000262 000c      	.DW  0x0C
000263 0209      	.DW  _alarm_off
000264 040a      	.DW  _0x2140003*2
                 
000265 0001      	.DW  0x01
000266 0219      	.DW  __seed_G110
000267 0416      	.DW  _0x2200060*2
                 
                 _0xFFFFFFFF:
000268 0000      	.DW  0
                 
                 #define __GLOBAL_INI_TBL_PRESENT 1
                 
                 __RESET:
000269 94f8      	CLI
00026a 27ee      	CLR  R30
00026b bbec      	OUT  EECR,R30
                 
                 ;INTERRUPT VECTORS ARE PLACED
                 ;AT THE START OF FLASH
00026c e0f1      	LDI  R31,1
00026d bffb      	OUT  GICR,R31
00026e bfeb      	OUT  GICR,R30
00026f bfe5      	OUT  MCUCR,R30
                 
                 ;CLEAR R2-R14
000270 e08d      	LDI  R24,(14-2)+1
000271 e0a2      	LDI  R26,2
000272 27bb      	CLR  R27
                 __CLEAR_REG:
000273 93ed      	ST   X+,R30
000274 958a      	DEC  R24
000275 f7e9      	BRNE __CLEAR_REG
                 
                 ;CLEAR SRAM
000276 e080      	LDI  R24,LOW(__CLEAR_SRAM_SIZE)
000277 e094      	LDI  R25,HIGH(__CLEAR_SRAM_SIZE)
000278 e6a0      	LDI  R26,__SRAM_START
                 __CLEAR_SRAM:
000279 93ed      	ST   X+,R30
00027a 9701      	SBIW R24,1
00027b f7e9      	BRNE __CLEAR_SRAM
                 
                 ;GLOBAL VARIABLES INITIALIZATION
00027c e2e2      	LDI  R30,LOW(__GLOBAL_INI_TBL*2)
00027d e0f4      	LDI  R31,HIGH(__GLOBAL_INI_TBL*2)
                 __GLOBAL_INI_NEXT:
00027e 9185      	LPM  R24,Z+
00027f 9195      	LPM  R25,Z+
000280 9700      	SBIW R24,0
000281 f061      	BREQ __GLOBAL_INI_END
000282 91a5      	LPM  R26,Z+
000283 91b5      	LPM  R27,Z+
000284 9005      	LPM  R0,Z+
000285 9015      	LPM  R1,Z+
000286 01bf      	MOVW R22,R30
000287 01f0      	MOVW R30,R0
                 __GLOBAL_INI_LOOP:
000288 9005      	LPM  R0,Z+
000289 920d      	ST   X+,R0
00028a 9701      	SBIW R24,1
00028b f7e1      	BRNE __GLOBAL_INI_LOOP
00028c 01fb      	MOVW R30,R22
00028d cff0      	RJMP __GLOBAL_INI_NEXT
                 __GLOBAL_INI_END:
                 
                 ;HARDWARE STACK POINTER INITIALIZATION
00028e e5ef      	LDI  R30,LOW(__SRAM_END-__HEAP_SIZE)
00028f bfed      	OUT  SPL,R30
000290 e0e4      	LDI  R30,HIGH(__SRAM_END-__HEAP_SIZE)
000291 bfee      	OUT  SPH,R30
                 
                 ;DATA STACK POINTER INITIALIZATION
000292 e6c0      	LDI  R28,LOW(__SRAM_START+__DSTACK_SIZE)
000293 e0d1      	LDI  R29,HIGH(__SRAM_START+__DSTACK_SIZE)
                 
000294 c34a      	RJMP _main
                 
                 	.ESEG
                 	.ORG 0
                 
                 	.DSEG
                 	.ORG 0x160
                 
                 	.CSEG
                 ;/*******************************************************
                 ;Project :  Clock Dispaly Glcd
                 ;Version :  00
                 ;Date    : 10/19/2017
                 ;Author  : Hoang Tam
                 ;Company :
                 ;Comments:
                 ;
                 ;Chip type               : ATmega8
                 ;Program type            : Application
                 ;AVR Core Clock frequency: 1.000000 MHz
                 ;Memory model            : Small
                 ;External RAM size       : 0
                 ;Data Stack size         : 256
                 ;*******************************************************/
                 ;
                 ;#include <mega8.h>
                 	#ifndef __SLEEP_DEFINED__
                 	#define __SLEEP_DEFINED__
                 	.EQU __se_bit=0x80
                 	.EQU __sm_mask=0x70
                 	.EQU __sm_powerdown=0x20
                 	.EQU __sm_powersave=0x30
                 	.EQU __sm_standby=0x60
                 	.EQU __sm_ext_standby=0x70
                 	.EQU __sm_adc_noise_red=0x10
                 	.SET power_ctrl_reg=mcucr
                 	#endif
                 ;#include <i2c.h>
                 ;#include <delay.h>
                 ;#include <glcd.h>
                 ;#include <font5x7.h>
                 ;#include <ds1307.h>
                 ;#include <DHT.h>
                 ;#include <fontnumber8x13.h>
                 ;#include <stdio.h>
                 ;#include "LCD/moon.h"
                 ;#include "LCD/sun.h"
                 ;#include "LCD/alarm_on.h"
                 ;#include "LCD/alarm_off.h"
                 ;
                 ;#define UP      PIND.1
                 ;#define DOWN    PIND.0
                 ;
                 ;bit blink,flash_sec;
                 ;char hour,minn,sec,day,date,month,year,No_date;
                 ;unsigned char mode,time;
                 ;eeprom unsigned char min_set,hour_set,alarm;
                 ;
                 ;void setDisplay();
                 ;
                 ;void timer0_init()
                 ; 0000 002A {
                 
                 	.CSEG
                 _timer0_init:
                 ; .FSTART _timer0_init
                 ; 0000 002B TCCR0=(0<<CS02) | (0<<CS01) | (1<<CS00);
000295 e0e1      	LDI  R30,LOW(1)
000296 bfe3      	OUT  0x33,R30
                 ; 0000 002C TCNT0=0x00;
000297 e0e0      	LDI  R30,LOW(0)
000298 bfe2      	OUT  0x32,R30
                 ; 0000 002D TIMSK=1<<TOIE0;
000299 e0e1      	LDI  R30,LOW(1)
00029a c002      	RJMP _0x222000C
                 ; 0000 002E }
                 ; .FEND
                 ;void timer0_stop()
                 ; 0000 0030 {
                 _timer0_stop:
                 ; .FSTART _timer0_stop
                 ; 0000 0031   TCCR0=0;
00029b e0e0      	LDI  R30,LOW(0)
00029c bfe3      	OUT  0x33,R30
                 ; 0000 0032   TIMSK=0<<TOIE0;
                 _0x222000C:
00029d bfe9      	OUT  0x39,R30
                 ; 0000 0033 }
00029e 9508      	RET
                 ; .FEND
                 ;
                 ;interrupt [EXT_INT0] void ext_int0_isr(void)
                 ; 0000 0036 {
                 _ext_int0_isr:
                 ; .FSTART _ext_int0_isr
00029f d920      	RCALL SUBOPT_0x0
                 ; 0000 0037      //MODE
                 ; 0000 0038     mode++;
0002a0 94c3      	INC  R12
                 ; 0000 0039     if(mode>8) mode=0;
0002a1 e0e8      	LDI  R30,LOW(8)
0002a2 15ec      	CP   R30,R12
0002a3 f408      	BRSH _0x3
0002a4 24cc      	CLR  R12
                 ; 0000 003A 
                 ; 0000 003B }
                 _0x3:
0002a5 c033      	RJMP _0xE3
                 ; .FEND
                 ;
                 ;// External Interrupt 1 service routine
                 ;interrupt [EXT_INT1] void ext_int1_isr(void)
                 ; 0000 003F {
                 _ext_int1_isr:
                 ; .FSTART _ext_int1_isr
0002a6 920a      	ST   -Y,R0
0002a7 921a      	ST   -Y,R1
0002a8 92fa      	ST   -Y,R15
0002a9 936a      	ST   -Y,R22
0002aa 937a      	ST   -Y,R23
0002ab 938a      	ST   -Y,R24
0002ac 939a      	ST   -Y,R25
0002ad 93aa      	ST   -Y,R26
0002ae 93ba      	ST   -Y,R27
0002af 93ea      	ST   -Y,R30
0002b0 93fa      	ST   -Y,R31
0002b1 b7ef      	IN   R30,SREG
0002b2 93ea      	ST   -Y,R30
                 ; 0000 0040     //OK
                 ; 0000 0041     rtc_set_time(hour,minn,sec);
0002b3 924a      	ST   -Y,R4
0002b4 923a      	ST   -Y,R3
0002b5 2da6      	MOV  R26,R6
0002b6 d848      	RCALL _rtc_set_time
                 ; 0000 0042     rtc_set_date(day,date,month,year);
0002b7 925a      	ST   -Y,R5
0002b8 928a      	ST   -Y,R8
0002b9 927a      	ST   -Y,R7
0002ba 2daa      	MOV  R26,R10
0002bb d85c      	RCALL _rtc_set_date
                 ; 0000 0043     setDisplay();
0002bc d303      	RCALL _setDisplay
                 ; 0000 0044     timer0_stop();
0002bd dfdd      	RCALL _timer0_stop
                 ; 0000 0045     mode=0;
0002be 24cc      	CLR  R12
                 ; 0000 0046 
                 ; 0000 0047 }
0002bf 91e9      	LD   R30,Y+
0002c0 bfef      	OUT  SREG,R30
0002c1 91f9      	LD   R31,Y+
0002c2 91e9      	LD   R30,Y+
0002c3 91b9      	LD   R27,Y+
0002c4 91a9      	LD   R26,Y+
0002c5 9199      	LD   R25,Y+
0002c6 9189      	LD   R24,Y+
0002c7 9179      	LD   R23,Y+
0002c8 9169      	LD   R22,Y+
0002c9 90f9      	LD   R15,Y+
0002ca 9019      	LD   R1,Y+
0002cb 9009      	LD   R0,Y+
0002cc 9518      	RETI
                 ; .FEND
                 ;
                 ;// Timer 0 overflow interrupt service routine
                 ;interrupt [TIM0_OVF] void timer0_ovf_isr(void)
                 ; 0000 004B {
                 _timer0_ovf_isr:
                 ; .FSTART _timer0_ovf_isr
0002cd d8f2      	RCALL SUBOPT_0x0
                 ; 0000 004C     //0.256ms
                 ; 0000 004D     time++;
0002ce 94b3      	INC  R11
                 ; 0000 004E     if(time>80)
0002cf e5e0      	LDI  R30,LOW(80)
0002d0 15eb      	CP   R30,R11
0002d1 f418      	BRSH _0x4
                 ; 0000 004F     {
                 ; 0000 0050       blink=~blink;
0002d2 e0e1      	LDI  R30,LOW(1)
0002d3 262e      	EOR  R2,R30
                 ; 0000 0051       time=0;
0002d4 24bb      	CLR  R11
                 ; 0000 0052     }
                 ; 0000 0053 
                 ; 0000 0054 }
                 _0x4:
0002d5 c003      	RJMP _0xE3
                 ; .FEND
                 ;
                 ;interrupt [TIM1_OVF] void timer1_ovf_isr(void)
                 ; 0000 0057 {
                 _timer1_ovf_isr:
                 ; .FSTART _timer1_ovf_isr
0002d6 d8e9      	RCALL SUBOPT_0x0
                 ; 0000 0058     flash_sec=~flash_sec;
0002d7 e0e2      	LDI  R30,LOW(2)
0002d8 262e      	EOR  R2,R30
                 ; 0000 0059 }
                 _0xE3:
0002d9 91e9      	LD   R30,Y+
0002da bfef      	OUT  SREG,R30
0002db 91e9      	LD   R30,Y+
0002dc 9518      	RETI
                 ; .FEND
                 ;void dayDisplay(unsigned char x, unsigned char y);
                 ;
                 ;void tempDisplay(unsigned char T_x, unsigned char T_y, unsigned char H_x, unsigned char H_y)
                 ; 0000 005D {
                 ; 0000 005E   float temp,humi;
                 ; 0000 005F   char lcdBuff[5];
                 ; 0000 0060   #asm("cli");
                 ;	T_x -> Y+16
                 ;	T_y -> Y+15
                 ;	H_x -> Y+14
                 ;	H_y -> Y+13
                 ;	temp -> Y+9
                 ;	humi -> Y+5
                 ;	lcdBuff -> Y+0
                 ; 0000 0061   temp=DHT_GetTemHumi(DHT_ND);
                 ; 0000 0062   humi=DHT_GetTemHumi(DHT_DA);
                 ; 0000 0063   #asm("sei");
                 ; 0000 0064   sprintf(lcdBuff,"%2.0f",temp);
                 ; 0000 0065   glcd_setfont(font5x7);
                 ; 0000 0066   glcd_outtextxy(T_x,T_y+3,lcdBuff);
                 ; 0000 0067   glcd_outtextxy(T_x+12,T_y,"o");
                 ; 0000 0068   glcd_outtextxy(T_x+18,T_y+3,"C");
                 ; 0000 0069 
                 ; 0000 006A   sprintf(lcdBuff,"%2.0f",humi);
                 ; 0000 006B   glcd_setfont(font5x7);
                 ; 0000 006C   glcd_outtextxy(H_x,H_y+3,lcdBuff);
                 ; 0000 006D   glcd_outtextxy(H_x+12,H_y+3,"%");
                 ; 0000 006E }
                 
                 	.DSEG
                 _0x5:
000160           	.BYTE 0x6
                 ;void getTime()
                 ; 0000 0070 {
                 
                 	.CSEG
                 _getTime:
                 ; .FSTART _getTime
                 ; 0000 0071     rtc_get_time(&hour,&minn,&sec);
0002dd d8e6      	RCALL SUBOPT_0x1
0002de d8e8      	RCALL SUBOPT_0x2
0002df e0e3      	LDI  R30,LOW(3)
0002e0 e0f0      	LDI  R31,HIGH(3)
0002e1 d8e5      	RCALL SUBOPT_0x2
0002e2 e0a6      	LDI  R26,LOW(6)
0002e3 e0b0      	LDI  R27,HIGH(6)
0002e4 d80b      	RCALL _rtc_get_time
                 ; 0000 0072     rtc_get_date(&day,&date,&month,&year);
0002e5 e0e5      	LDI  R30,LOW(5)
0002e6 e0f0      	LDI  R31,HIGH(5)
0002e7 d8df      	RCALL SUBOPT_0x2
0002e8 e0e8      	LDI  R30,LOW(8)
0002e9 e0f0      	LDI  R31,HIGH(8)
0002ea d8dc      	RCALL SUBOPT_0x2
0002eb e0e7      	LDI  R30,LOW(7)
0002ec e0f0      	LDI  R31,HIGH(7)
0002ed d8d9      	RCALL SUBOPT_0x2
0002ee e0aa      	LDI  R26,LOW(10)
0002ef e0b0      	LDI  R27,HIGH(10)
0002f0 d816      	RCALL _rtc_get_date
                 ; 0000 0073 }
0002f1 9508      	RET
                 ; .FEND
                 ;void timeDisplay(unsigned char x, unsigned char y)
                 ; 0000 0075 {
                 _timeDisplay:
                 ; .FSTART _timeDisplay
                 ; 0000 0076   glcd_setfont(fontNumber);
0002f2 93aa      	ST   -Y,R26
                 ;	x -> Y+1
                 ;	y -> Y+0
0002f3 d8d6      	RCALL SUBOPT_0x3
                 ; 0000 0077   glcd_putcharxy(x,y,48+(hour/10));
0002f4 2da4      	MOV  R26,R4
0002f5 d8df      	RCALL SUBOPT_0x4
0002f6 d79b      	RCALL _glcd_putcharxy
                 ; 0000 0078   glcd_putchar(48+(hour%10));
0002f7 2da4      	MOV  R26,R4
0002f8 d8e3      	RCALL SUBOPT_0x5
                 ; 0000 0079   glcd_outtext(":");
                +
0002f9 e6a6     +LDI R26 , LOW ( _0x6 + ( 0 ) )
0002fa e0b1     +LDI R27 , HIGH ( _0x6 + ( 0 ) )
                 	__POINTW2MN _0x6,0
0002fb d7a8      	RCALL _glcd_outtext
                 ; 0000 007A   glcd_putchar(48+(minn/10));
0002fc 2da3      	MOV  R26,R3
0002fd d8d7      	RCALL SUBOPT_0x4
0002fe d709      	RCALL _glcd_putchar
                 ; 0000 007B   glcd_putchar(48+(minn%10));
0002ff 2da3      	MOV  R26,R3
000300 d8db      	RCALL SUBOPT_0x5
                 ; 0000 007C   if(mode==2 && blink%2==0)
000301 e0e2      	LDI  R30,LOW(2)
000302 15ec      	CP   R30,R12
000303 f411      	BRNE _0x8
000304 d8de      	RCALL SUBOPT_0x6
000305 f009      	BREQ _0x9
                 _0x8:
000306 c004      	RJMP _0x7
                 _0x9:
                 ; 0000 007D   {
                 ; 0000 007E     glcd_setfont(fontNumber);
000307 d8c2      	RCALL SUBOPT_0x3
                 ; 0000 007F     glcd_outtextxy(x,y,"..");
                +
000308 e6a8     +LDI R26 , LOW ( _0x6 + ( 2 ) )
000309 e0b1     +LDI R27 , HIGH ( _0x6 + ( 2 ) )
                 	__POINTW2MN _0x6,2
00030a d78c      	RCALL _glcd_outtextxy
                 ; 0000 0080   }
                 ; 0000 0081   if(mode==1 && blink%2==0)
                 _0x7:
00030b e0e1      	LDI  R30,LOW(1)
00030c 15ec      	CP   R30,R12
00030d f411      	BRNE _0xB
00030e d8d4      	RCALL SUBOPT_0x6
00030f f009      	BREQ _0xC
                 _0xB:
000310 c006      	RJMP _0xA
                 _0xC:
                 ; 0000 0082   {
                 ; 0000 0083     glcd_setfont(fontNumber);
000311 d8db      	RCALL SUBOPT_0x7
                 ; 0000 0084     glcd_outtextxy(x+27,y,"..");
000312 5ee5      	SUBI R30,-LOW(27)
000313 d8e1      	RCALL SUBOPT_0x8
                +
000314 e6ab     +LDI R26 , LOW ( _0x6 + ( 5 ) )
000315 e0b1     +LDI R27 , HIGH ( _0x6 + ( 5 ) )
                 	__POINTW2MN _0x6,5
000316 d780      	RCALL _glcd_outtextxy
                 ; 0000 0085   }
                 ; 0000 0086   if(mode==0 && flash_sec%2==0)
                 _0xA:
000317 20cc      	TST  R12
000318 f441      	BRNE _0xE
000319 e0e0      	LDI  R30,0
00031a fc21      	SBRC R2,1
00031b e0e1      	LDI  R30,1
00031c d8dc      	RCALL SUBOPT_0x9
00031d e0e2      	LDI  R30,LOW(2)
00031e e0f0      	LDI  R31,HIGH(2)
00031f d8dc      	RCALL SUBOPT_0xA
000320 f009      	BREQ _0xF
                 _0xE:
000321 c006      	RJMP _0xD
                 _0xF:
                 ; 0000 0087   {
                 ; 0000 0088     glcd_setfont(fontNumber);
000322 d8ca      	RCALL SUBOPT_0x7
                 ; 0000 0089     glcd_outtextxy(x+18,y,".");
000323 5eee      	SUBI R30,-LOW(18)
000324 d8d0      	RCALL SUBOPT_0x8
                +
000325 e6ae     +LDI R26 , LOW ( _0x6 + ( 8 ) )
000326 e0b1     +LDI R27 , HIGH ( _0x6 + ( 8 ) )
                 	__POINTW2MN _0x6,8
000327 d76f      	RCALL _glcd_outtextxy
                 ; 0000 008A   }
                 ; 0000 008B }
                 _0xD:
000328 c80e      	RJMP _0x2220003
                 ; .FEND
                 
                 	.DSEG
                 _0x6:
000166           	.BYTE 0xA
                 ;void dateDisplay(unsigned char x, unsigned char y)
                 ; 0000 008D {
                 
                 	.CSEG
                 _dateDisplay:
                 ; .FSTART _dateDisplay
                 ; 0000 008E   glcd_setfont(font5x7);
000329 d8d5      	RCALL SUBOPT_0xB
                 ;	x -> Y+1
                 ;	y -> Y+0
                 ; 0000 008F   dayDisplay(x,y);
00032a 93ea      	ST   -Y,R30
00032b 81a9      	LDD  R26,Y+1
00032c d03d      	RCALL _dayDisplay
                 ; 0000 0090   glcd_putcharxy(x+18,y,48+(date/10));
00032d 81e9      	LDD  R30,Y+1
00032e 5eee      	SUBI R30,-LOW(18)
00032f d8c5      	RCALL SUBOPT_0x8
000330 2da8      	MOV  R26,R8
000331 d8a3      	RCALL SUBOPT_0x4
000332 d75f      	RCALL _glcd_putcharxy
                 ; 0000 0091   glcd_putchar(48+(date%10));
000333 2da8      	MOV  R26,R8
000334 d8a7      	RCALL SUBOPT_0x5
                 ; 0000 0092   glcd_outtext("/");
                +
000335 e7a0     +LDI R26 , LOW ( _0x10 + ( 0 ) )
000336 e0b1     +LDI R27 , HIGH ( _0x10 + ( 0 ) )
                 	__POINTW2MN _0x10,0
000337 d76c      	RCALL _glcd_outtext
                 ; 0000 0093   glcd_putchar(48+(month/10));
000338 2da7      	MOV  R26,R7
000339 d89b      	RCALL SUBOPT_0x4
00033a d6cd      	RCALL _glcd_putchar
                 ; 0000 0094   glcd_putchar(48+(month%10));
00033b 2da7      	MOV  R26,R7
00033c d89f      	RCALL SUBOPT_0x5
                 ; 0000 0095   glcd_outtext("/");
                +
00033d e7a2     +LDI R26 , LOW ( _0x10 + ( 2 ) )
00033e e0b1     +LDI R27 , HIGH ( _0x10 + ( 2 ) )
                 	__POINTW2MN _0x10,2
00033f d764      	RCALL _glcd_outtext
                 ; 0000 0096   glcd_putchar(48+(year/10));
000340 2daa      	MOV  R26,R10
000341 d893      	RCALL SUBOPT_0x4
000342 d6c5      	RCALL _glcd_putchar
                 ; 0000 0097   glcd_putchar(48+(year%10));
000343 2daa      	MOV  R26,R10
000344 d897      	RCALL SUBOPT_0x5
                 ; 0000 0098 
                 ; 0000 0099   if(blink%2==0 && mode==3)
000345 d89d      	RCALL SUBOPT_0x6
000346 f419      	BRNE _0x12
000347 e0e3      	LDI  R30,LOW(3)
000348 15ec      	CP   R30,R12
000349 f009      	BREQ _0x13
                 _0x12:
00034a c006      	RJMP _0x11
                 _0x13:
                 ; 0000 009A   {
                 ; 0000 009B     glcd_outtextxy(x+18,y,"  ");
00034b 81e9      	LDD  R30,Y+1
00034c 5eee      	SUBI R30,-LOW(18)
00034d d8a7      	RCALL SUBOPT_0x8
                +
00034e e7a4     +LDI R26 , LOW ( _0x10 + ( 4 ) )
00034f e0b1     +LDI R27 , HIGH ( _0x10 + ( 4 ) )
                 	__POINTW2MN _0x10,4
000350 d746      	RCALL _glcd_outtextxy
                 ; 0000 009C   }
                 ; 0000 009D   if(blink%2==0 && mode==4)
                 _0x11:
000351 d891      	RCALL SUBOPT_0x6
000352 f419      	BRNE _0x15
000353 e0e4      	LDI  R30,LOW(4)
000354 15ec      	CP   R30,R12
000355 f009      	BREQ _0x16
                 _0x15:
000356 c006      	RJMP _0x14
                 _0x16:
                 ; 0000 009E   {
                 ; 0000 009F     glcd_outtextxy(x+36,y,"  ");
000357 81e9      	LDD  R30,Y+1
000358 5dec      	SUBI R30,-LOW(36)
000359 d89b      	RCALL SUBOPT_0x8
                +
00035a e7a7     +LDI R26 , LOW ( _0x10 + ( 7 ) )
00035b e0b1     +LDI R27 , HIGH ( _0x10 + ( 7 ) )
                 	__POINTW2MN _0x10,7
00035c d73a      	RCALL _glcd_outtextxy
                 ; 0000 00A0   }
                 ; 0000 00A1   if(blink%2==0 && mode==5)
                 _0x14:
00035d d885      	RCALL SUBOPT_0x6
00035e f419      	BRNE _0x18
00035f e0e5      	LDI  R30,LOW(5)
000360 15ec      	CP   R30,R12
000361 f009      	BREQ _0x19
                 _0x18:
000362 c006      	RJMP _0x17
                 _0x19:
                 ; 0000 00A2   {
                 ; 0000 00A3     glcd_outtextxy(x+54,y,"  ");
000363 81e9      	LDD  R30,Y+1
000364 5cea      	SUBI R30,-LOW(54)
000365 d88f      	RCALL SUBOPT_0x8
                +
000366 e7aa     +LDI R26 , LOW ( _0x10 + ( 10 ) )
000367 e0b1     +LDI R27 , HIGH ( _0x10 + ( 10 ) )
                 	__POINTW2MN _0x10,10
000368 d72e      	RCALL _glcd_outtextxy
                 ; 0000 00A4   }
                 ; 0000 00A5 }
                 _0x17:
000369 c7cd      	RJMP _0x2220003
                 ; .FEND
                 
                 	.DSEG
                 _0x10:
000170           	.BYTE 0xD
                 ;
                 ;void dayDisplay(unsigned char x, unsigned char y)
                 ; 0000 00A8 { int C;
                 
                 	.CSEG
                 _dayDisplay:
                 ; .FSTART _dayDisplay
                 ; 0000 00A9 switch (month)
00036a 93aa      	ST   -Y,R26
00036b dab0      	RCALL __SAVELOCR2
                 ;	x -> Y+3
                 ;	y -> Y+2
                 ;	C -> R16,R17
00036c 2de7      	MOV  R30,R7
00036d e0f0      	LDI  R31,0
                 ; 0000 00AA              {
                 ; 0000 00AB              case 1: C=date;
00036e 30e1      	CPI  R30,LOW(0x1)
00036f e0a0      	LDI  R26,HIGH(0x1)
000370 07fa      	CPC  R31,R26
000371 f419      	BRNE _0x1D
000372 2d08      	MOV  R16,R8
000373 2711      	CLR  R17
                 ; 0000 00AC                      break;
000374 c09b      	RJMP _0x1C
                 ; 0000 00AD              case 2: C=31+date;
                 _0x1D:
000375 30e2      	CPI  R30,LOW(0x2)
000376 e0a0      	LDI  R26,HIGH(0x2)
000377 07fa      	CPC  R31,R26
000378 f421      	BRNE _0x1E
000379 d88e      	RCALL SUBOPT_0xC
00037a 967f      	ADIW R30,31
00037b 018f      	MOVW R16,R30
                 ; 0000 00AE                      break;
00037c c093      	RJMP _0x1C
                 ; 0000 00AF              case 3: if(year%4==0) C=60+date;
                 _0x1E:
00037d 30e3      	CPI  R30,LOW(0x3)
00037e e0a0      	LDI  R26,HIGH(0x3)
00037f 07fa      	CPC  R31,R26
000380 f449      	BRNE _0x1F
000381 d889      	RCALL SUBOPT_0xD
000382 f419      	BRNE _0x20
000383 d884      	RCALL SUBOPT_0xC
000384 96fc      	ADIW R30,60
000385 c002      	RJMP _0xD0
                 ; 0000 00B0                      else C=59+date;
                 _0x20:
000386 d881      	RCALL SUBOPT_0xC
000387 96fb      	ADIW R30,59
                 _0xD0:
000388 018f      	MOVW R16,R30
                 ; 0000 00B1                      break;
000389 c086      	RJMP _0x1C
                 ; 0000 00B2              case 4: if((year%4)==0) C=91+date;
                 _0x1F:
00038a 30e4      	CPI  R30,LOW(0x4)
00038b e0a0      	LDI  R26,HIGH(0x4)
00038c 07fa      	CPC  R31,R26
00038d f459      	BRNE _0x22
00038e d87c      	RCALL SUBOPT_0xD
00038f f421      	BRNE _0x23
000390 d877      	RCALL SUBOPT_0xC
000391 5ae5      	SUBI R30,LOW(-91)
000392 4fff      	SBCI R31,HIGH(-91)
000393 c003      	RJMP _0xD1
                 ; 0000 00B3                      else C=90+date;
                 _0x23:
000394 d873      	RCALL SUBOPT_0xC
000395 5ae6      	SUBI R30,LOW(-90)
000396 4fff      	SBCI R31,HIGH(-90)
                 _0xD1:
000397 018f      	MOVW R16,R30
                 ; 0000 00B4                      break;
000398 c077      	RJMP _0x1C
                 ; 0000 00B5              case 5: if((year%4)==0) C=121+date;
                 _0x22:
000399 30e5      	CPI  R30,LOW(0x5)
00039a e0a0      	LDI  R26,HIGH(0x5)
00039b 07fa      	CPC  R31,R26
00039c f459      	BRNE _0x25
00039d d86d      	RCALL SUBOPT_0xD
00039e f421      	BRNE _0x26
00039f d868      	RCALL SUBOPT_0xC
0003a0 58e7      	SUBI R30,LOW(-121)
0003a1 4fff      	SBCI R31,HIGH(-121)
0003a2 c003      	RJMP _0xD2
                 ; 0000 00B6                      else C=120+date;
                 _0x26:
0003a3 d864      	RCALL SUBOPT_0xC
0003a4 58e8      	SUBI R30,LOW(-120)
0003a5 4fff      	SBCI R31,HIGH(-120)
                 _0xD2:
0003a6 018f      	MOVW R16,R30
                 ; 0000 00B7                      break;
0003a7 c068      	RJMP _0x1C
                 ; 0000 00B8              case 6: if((year%4)==0) C=152+date;
                 _0x25:
0003a8 30e6      	CPI  R30,LOW(0x6)
0003a9 e0a0      	LDI  R26,HIGH(0x6)
0003aa 07fa      	CPC  R31,R26
0003ab f459      	BRNE _0x28
0003ac d85e      	RCALL SUBOPT_0xD
0003ad f421      	BRNE _0x29
0003ae d859      	RCALL SUBOPT_0xC
0003af 56e8      	SUBI R30,LOW(-152)
0003b0 4fff      	SBCI R31,HIGH(-152)
0003b1 c003      	RJMP _0xD3
                 ; 0000 00B9                      else C=151+date;
                 _0x29:
0003b2 d855      	RCALL SUBOPT_0xC
0003b3 56e9      	SUBI R30,LOW(-151)
0003b4 4fff      	SBCI R31,HIGH(-151)
                 _0xD3:
0003b5 018f      	MOVW R16,R30
                 ; 0000 00BA                      break;
0003b6 c059      	RJMP _0x1C
                 ; 0000 00BB              case 7: if((year%4)==0) C=182+date;
                 _0x28:
0003b7 30e7      	CPI  R30,LOW(0x7)
0003b8 e0a0      	LDI  R26,HIGH(0x7)
0003b9 07fa      	CPC  R31,R26
0003ba f459      	BRNE _0x2B
0003bb d84f      	RCALL SUBOPT_0xD
0003bc f421      	BRNE _0x2C
0003bd d84a      	RCALL SUBOPT_0xC
0003be 54ea      	SUBI R30,LOW(-182)
0003bf 4fff      	SBCI R31,HIGH(-182)
0003c0 c003      	RJMP _0xD4
                 ; 0000 00BC                      else C=181+date;
                 _0x2C:
0003c1 d846      	RCALL SUBOPT_0xC
0003c2 54eb      	SUBI R30,LOW(-181)
0003c3 4fff      	SBCI R31,HIGH(-181)
                 _0xD4:
0003c4 018f      	MOVW R16,R30
                 ; 0000 00BD                      break;
0003c5 c04a      	RJMP _0x1C
                 ; 0000 00BE              case 8: if((year%4)==0) C=213+date;
                 _0x2B:
0003c6 30e8      	CPI  R30,LOW(0x8)
0003c7 e0a0      	LDI  R26,HIGH(0x8)
0003c8 07fa      	CPC  R31,R26
0003c9 f459      	BRNE _0x2E
0003ca d840      	RCALL SUBOPT_0xD
0003cb f421      	BRNE _0x2F
0003cc d83b      	RCALL SUBOPT_0xC
0003cd 52eb      	SUBI R30,LOW(-213)
0003ce 4fff      	SBCI R31,HIGH(-213)
0003cf c003      	RJMP _0xD5
                 ; 0000 00BF                      else C=212+date;
                 _0x2F:
0003d0 d837      	RCALL SUBOPT_0xC
0003d1 52ec      	SUBI R30,LOW(-212)
0003d2 4fff      	SBCI R31,HIGH(-212)
                 _0xD5:
0003d3 018f      	MOVW R16,R30
                 ; 0000 00C0                      break;
0003d4 c03b      	RJMP _0x1C
                 ; 0000 00C1              case 9: if((year%4)==0) C=244+date;
                 _0x2E:
0003d5 30e9      	CPI  R30,LOW(0x9)
0003d6 e0a0      	LDI  R26,HIGH(0x9)
0003d7 07fa      	CPC  R31,R26
0003d8 f459      	BRNE _0x31
0003d9 d831      	RCALL SUBOPT_0xD
0003da f421      	BRNE _0x32
0003db d82c      	RCALL SUBOPT_0xC
0003dc 50ec      	SUBI R30,LOW(-244)
0003dd 4fff      	SBCI R31,HIGH(-244)
0003de c003      	RJMP _0xD6
                 ; 0000 00C2                      else C=243+date;
                 _0x32:
0003df d828      	RCALL SUBOPT_0xC
0003e0 50ed      	SUBI R30,LOW(-243)
0003e1 4fff      	SBCI R31,HIGH(-243)
                 _0xD6:
0003e2 018f      	MOVW R16,R30
                 ; 0000 00C3                      break;
0003e3 c02c      	RJMP _0x1C
                 ; 0000 00C4              case 10:if((year%4)==0) C=274+date;
                 _0x31:
0003e4 30ea      	CPI  R30,LOW(0xA)
0003e5 e0a0      	LDI  R26,HIGH(0xA)
0003e6 07fa      	CPC  R31,R26
0003e7 f459      	BRNE _0x34
0003e8 d822      	RCALL SUBOPT_0xD
0003e9 f421      	BRNE _0x35
0003ea d81d      	RCALL SUBOPT_0xC
0003eb 5eee      	SUBI R30,LOW(-274)
0003ec 4ffe      	SBCI R31,HIGH(-274)
0003ed c003      	RJMP _0xD7
                 ; 0000 00C5                      else C=273+date;
                 _0x35:
0003ee d819      	RCALL SUBOPT_0xC
0003ef 5eef      	SUBI R30,LOW(-273)
0003f0 4ffe      	SBCI R31,HIGH(-273)
                 _0xD7:
0003f1 018f      	MOVW R16,R30
                 ; 0000 00C6                      break;
0003f2 c01d      	RJMP _0x1C
                 ; 0000 00C7              case 11:if((year%4)==0) C=305+date;
                 _0x34:
0003f3 30eb      	CPI  R30,LOW(0xB)
0003f4 e0a0      	LDI  R26,HIGH(0xB)
0003f5 07fa      	CPC  R31,R26
0003f6 f459      	BRNE _0x37
0003f7 d813      	RCALL SUBOPT_0xD
0003f8 f421      	BRNE _0x38
0003f9 d80e      	RCALL SUBOPT_0xC
0003fa 5cef      	SUBI R30,LOW(-305)
0003fb 4ffe      	SBCI R31,HIGH(-305)
0003fc c003      	RJMP _0xD8
                 ; 0000 00C8                      else C=304+date;
                 _0x38:
0003fd d80a      	RCALL SUBOPT_0xC
0003fe 5de0      	SUBI R30,LOW(-304)
0003ff 4ffe      	SBCI R31,HIGH(-304)
                 _0xD8:
000400 018f      	MOVW R16,R30
                 ; 0000 00C9                      break;
000401 c00e      	RJMP _0x1C
                 ; 0000 00CA              case 12:if((year%4)==0) C=335+date;
                 _0x37:
000402 30ec      	CPI  R30,LOW(0xC)
000403 e0a0      	LDI  R26,HIGH(0xC)
000404 07fa      	CPC  R31,R26
000405 f451      	BRNE _0x3D
000406 d804      	RCALL SUBOPT_0xD
000407 f421      	BRNE _0x3B
000408 d7ff      	RCALL SUBOPT_0xC
000409 5be1      	SUBI R30,LOW(-335)
00040a 4ffe      	SBCI R31,HIGH(-335)
00040b c003      	RJMP _0xD9
                 ; 0000 00CB                      else C=334+date;
                 _0x3B:
00040c d7fb      	RCALL SUBOPT_0xC
00040d 5be2      	SUBI R30,LOW(-334)
00040e 4ffe      	SBCI R31,HIGH(-334)
                 _0xD9:
00040f 018f      	MOVW R16,R30
                 ; 0000 00CC                      break;
                 ; 0000 00CD              default:
                 _0x3D:
                 ; 0000 00CE              }
                 _0x1C:
                 ; 0000 00CF              //glcd_setfont(font5x7);
                 ; 0000 00D0              //cong thuc tinh thu:
                 ; 0000 00D1             // n=((years-1)+((years-1)/4)-((years-1)/100)+((years-1)/400)+C)%7
                 ; 0000 00D2             // n: thu trong tuan (0=CN;1=T2.....6=t7)
                 ; 0000 00D3             // C: ngay thu bao nhieu tu dau nam den hien tai
                 ; 0000 00D4  switch(((2000+year-1)+((2000+year-1)/4)-((2000+year-1)/100)+((2000+year-1)/400)+C)%7)
000410 d7fe      	RCALL SUBOPT_0xE
000411 01bf      	MOVW R22,R30
000412 01df      	MOVW R26,R30
000413 d7b0      	RCALL SUBOPT_0x1
000414 d9bd      	RCALL __DIVW21
                +
000415 0f6e     +ADD R22 , R30
000416 1f7f     +ADC R23 , R31
                 	__ADDWRR 22,23,30,31
000417 d7f7      	RCALL SUBOPT_0xE
000418 01df      	MOVW R26,R30
000419 e6e4      	LDI  R30,LOW(100)
00041a e0f0      	LDI  R31,HIGH(100)
00041b d9b6      	RCALL __DIVW21
                +
00041c 1b6e     +SUB R22 , R30
00041d 0b7f     +SBC R23 , R31
                 	__SUBWRR 22,23,30,31
00041e d7f0      	RCALL SUBOPT_0xE
00041f 01df      	MOVW R26,R30
000420 e9e0      	LDI  R30,LOW(400)
000421 e0f1      	LDI  R31,HIGH(400)
000422 d9af      	RCALL __DIVW21
000423 0fe6      	ADD  R30,R22
000424 1ff7      	ADC  R31,R23
000425 0fe0      	ADD  R30,R16
000426 1ff1      	ADC  R31,R17
000427 01df      	MOVW R26,R30
000428 e0e7      	LDI  R30,LOW(7)
000429 e0f0      	LDI  R31,HIGH(7)
00042a d7d1      	RCALL SUBOPT_0xA
                 ; 0000 00D5             {
                 ; 0000 00D6                 case 0: glcd_outtextxy(x,y,"CN-"); break;
00042b f431      	BRNE _0x41
00042c d7e8      	RCALL SUBOPT_0xF
00042d d7e7      	RCALL SUBOPT_0xF
                +
00042e e7ad     +LDI R26 , LOW ( _0x42 + ( 0 ) )
00042f e0b1     +LDI R27 , HIGH ( _0x42 + ( 0 ) )
                 	__POINTW2MN _0x42,0
000430 d666      	RCALL _glcd_outtextxy
000431 c03b      	RJMP _0x40
                 ; 0000 00D7                 case 1: glcd_outtextxy(x,y,"T2-"); break;
                 _0x41:
000432 30e1      	CPI  R30,LOW(0x1)
000433 e0a0      	LDI  R26,HIGH(0x1)
000434 07fa      	CPC  R31,R26
000435 f431      	BRNE _0x43
000436 d7de      	RCALL SUBOPT_0xF
000437 d7dd      	RCALL SUBOPT_0xF
                +
000438 e8a1     +LDI R26 , LOW ( _0x42 + ( 4 ) )
000439 e0b1     +LDI R27 , HIGH ( _0x42 + ( 4 ) )
                 	__POINTW2MN _0x42,4
00043a d65c      	RCALL _glcd_outtextxy
00043b c031      	RJMP _0x40
                 ; 0000 00D8                 case 2: glcd_outtextxy(x,y,"T3-"); break;
                 _0x43:
00043c 30e2      	CPI  R30,LOW(0x2)
00043d e0a0      	LDI  R26,HIGH(0x2)
00043e 07fa      	CPC  R31,R26
00043f f431      	BRNE _0x44
000440 d7d4      	RCALL SUBOPT_0xF
000441 d7d3      	RCALL SUBOPT_0xF
                +
000442 e8a5     +LDI R26 , LOW ( _0x42 + ( 8 ) )
000443 e0b1     +LDI R27 , HIGH ( _0x42 + ( 8 ) )
                 	__POINTW2MN _0x42,8
000444 d652      	RCALL _glcd_outtextxy
000445 c027      	RJMP _0x40
                 ; 0000 00D9                 case 3: glcd_outtextxy(x,y,"T4-"); break;
                 _0x44:
000446 30e3      	CPI  R30,LOW(0x3)
000447 e0a0      	LDI  R26,HIGH(0x3)
000448 07fa      	CPC  R31,R26
000449 f431      	BRNE _0x45
00044a d7ca      	RCALL SUBOPT_0xF
00044b d7c9      	RCALL SUBOPT_0xF
                +
00044c e8a9     +LDI R26 , LOW ( _0x42 + ( 12 ) )
00044d e0b1     +LDI R27 , HIGH ( _0x42 + ( 12 ) )
                 	__POINTW2MN _0x42,12
00044e d648      	RCALL _glcd_outtextxy
00044f c01d      	RJMP _0x40
                 ; 0000 00DA                 case 4: glcd_outtextxy(x,y,"T5-"); break;
                 _0x45:
000450 30e4      	CPI  R30,LOW(0x4)
000451 e0a0      	LDI  R26,HIGH(0x4)
000452 07fa      	CPC  R31,R26
000453 f431      	BRNE _0x46
000454 d7c0      	RCALL SUBOPT_0xF
000455 d7bf      	RCALL SUBOPT_0xF
                +
000456 e8ad     +LDI R26 , LOW ( _0x42 + ( 16 ) )
000457 e0b1     +LDI R27 , HIGH ( _0x42 + ( 16 ) )
                 	__POINTW2MN _0x42,16
000458 d63e      	RCALL _glcd_outtextxy
000459 c013      	RJMP _0x40
                 ; 0000 00DB                 case 5: glcd_outtextxy(x,y,"T6-"); break;
                 _0x46:
00045a 30e5      	CPI  R30,LOW(0x5)
00045b e0a0      	LDI  R26,HIGH(0x5)
00045c 07fa      	CPC  R31,R26
00045d f431      	BRNE _0x47
00045e d7b6      	RCALL SUBOPT_0xF
00045f d7b5      	RCALL SUBOPT_0xF
                +
000460 e9a1     +LDI R26 , LOW ( _0x42 + ( 20 ) )
000461 e0b1     +LDI R27 , HIGH ( _0x42 + ( 20 ) )
                 	__POINTW2MN _0x42,20
000462 d634      	RCALL _glcd_outtextxy
000463 c009      	RJMP _0x40
                 ; 0000 00DC                 case 6: glcd_outtextxy(x,y,"T7-"); break;
                 _0x47:
000464 30e6      	CPI  R30,LOW(0x6)
000465 e0a0      	LDI  R26,HIGH(0x6)
000466 07fa      	CPC  R31,R26
000467 f429      	BRNE _0x49
000468 d7ac      	RCALL SUBOPT_0xF
000469 d7ab      	RCALL SUBOPT_0xF
                +
00046a e9a5     +LDI R26 , LOW ( _0x42 + ( 24 ) )
00046b e0b1     +LDI R27 , HIGH ( _0x42 + ( 24 ) )
                 	__POINTW2MN _0x42,24
00046c d62a      	RCALL _glcd_outtextxy
                 ; 0000 00DD                 default:
                 _0x49:
                 ; 0000 00DE             }
                 _0x40:
                 ; 0000 00DF }
00046d d9b5      	RCALL __LOADLOCR2
00046e c725      	RJMP _0x2220001
                 ; .FEND
                 
                 	.DSEG
                 _0x42:
00017d           	.BYTE 0x1C
                 ;
                 ;void alarmDisplay(unsigned char x, unsigned char y)
                 ; 0000 00E2 {
                 
                 	.CSEG
                 _alarmDisplay:
                 ; .FSTART _alarmDisplay
                 ; 0000 00E3    glcd_setfont(font5x7);
00046f d78f      	RCALL SUBOPT_0xB
                 ;	x -> Y+1
                 ;	y -> Y+0
                 ; 0000 00E4    glcd_putcharxy(x+10,y+1,48+hour_set/10);
000470 d7a7      	RCALL SUBOPT_0x10
000471 d7ac      	RCALL SUBOPT_0x11
000472 d7af      	RCALL SUBOPT_0x12
000473 d95e      	RCALL __DIVW21
000474 d7b0      	RCALL SUBOPT_0x13
000475 d61c      	RCALL _glcd_putcharxy
                 ; 0000 00E5    glcd_putchar(48+hour_set%10);
000476 d7a7      	RCALL SUBOPT_0x11
000477 d7aa      	RCALL SUBOPT_0x12
000478 d95e      	RCALL __MODW21
000479 d7ab      	RCALL SUBOPT_0x13
00047a d58d      	RCALL _glcd_putchar
                 ; 0000 00E6    glcd_outtext(":");
                +
00047b e9a9     +LDI R26 , LOW ( _0x4A + ( 0 ) )
00047c e0b1     +LDI R27 , HIGH ( _0x4A + ( 0 ) )
                 	__POINTW2MN _0x4A,0
00047d d626      	RCALL _glcd_outtext
                 ; 0000 00E7    glcd_putchar(48+min_set/10);
00047e d7a9      	RCALL SUBOPT_0x14
00047f d7a2      	RCALL SUBOPT_0x12
000480 d951      	RCALL __DIVW21
000481 d7a3      	RCALL SUBOPT_0x13
000482 d585      	RCALL _glcd_putchar
                 ; 0000 00E8    glcd_putchar(48+min_set%10);
000483 d7a4      	RCALL SUBOPT_0x14
000484 d79d      	RCALL SUBOPT_0x12
000485 d951      	RCALL __MODW21
000486 d79e      	RCALL SUBOPT_0x13
000487 d580      	RCALL _glcd_putchar
                 ; 0000 00E9 
                 ; 0000 00EA    if(mode==6 && blink==1)
000488 e0e6      	LDI  R30,LOW(6)
000489 15ec      	CP   R30,R12
00048a f411      	BRNE _0x4C
00048b fc20      	SBRC R2,0
00048c c001      	RJMP _0x4D
                 _0x4C:
00048d c009      	RJMP _0x4B
                 _0x4D:
                 ; 0000 00EB    {
                 ; 0000 00EC      glcd_setfont(font5x7);
00048e d79d      	RCALL SUBOPT_0x15
                 ; 0000 00ED      glcd_outtextxy(x+28,y+1,"  ");
00048f 5ee4      	SUBI R30,-LOW(28)
000490 93ea      	ST   -Y,R30
000491 81e9      	LDD  R30,Y+1
000492 5fef      	SUBI R30,-LOW(1)
000493 93ea      	ST   -Y,R30
                +
000494 e9ab     +LDI R26 , LOW ( _0x4A + ( 2 ) )
000495 e0b1     +LDI R27 , HIGH ( _0x4A + ( 2 ) )
                 	__POINTW2MN _0x4A,2
000496 d600      	RCALL _glcd_outtextxy
                 ; 0000 00EE    }
                 ; 0000 00EF    if(mode==7 && blink==1)
                 _0x4B:
000497 e0e7      	LDI  R30,LOW(7)
000498 15ec      	CP   R30,R12
000499 f411      	BRNE _0x4F
00049a fc20      	SBRC R2,0
00049b c001      	RJMP _0x50
                 _0x4F:
00049c c005      	RJMP _0x4E
                 _0x50:
                 ; 0000 00F0    {
                 ; 0000 00F1      glcd_setfont(font5x7);
00049d d78e      	RCALL SUBOPT_0x15
                 ; 0000 00F2      glcd_outtextxy(x+10,y+1,"  ");
00049e d779      	RCALL SUBOPT_0x10
                +
00049f e9ae     +LDI R26 , LOW ( _0x4A + ( 5 ) )
0004a0 e0b1     +LDI R27 , HIGH ( _0x4A + ( 5 ) )
                 	__POINTW2MN _0x4A,5
0004a1 d5f5      	RCALL _glcd_outtextxy
                 ; 0000 00F3    }
                 ; 0000 00F4    if(mode==8 && blink==1)
                 _0x4E:
0004a2 e0e8      	LDI  R30,LOW(8)
0004a3 15ec      	CP   R30,R12
0004a4 f411      	BRNE _0x52
0004a5 fc20      	SBRC R2,0
0004a6 c001      	RJMP _0x53
                 _0x52:
0004a7 c006      	RJMP _0x51
                 _0x53:
                 ; 0000 00F5    {
                 ; 0000 00F6      glcd_setfont(font5x7);
0004a8 d783      	RCALL SUBOPT_0x15
                 ; 0000 00F7      glcd_outtextxy(x-3,y,"  ");
0004a9 50e3      	SUBI R30,LOW(3)
0004aa d74a      	RCALL SUBOPT_0x8
                +
0004ab eaa1     +LDI R26 , LOW ( _0x4A + ( 8 ) )
0004ac e0b1     +LDI R27 , HIGH ( _0x4A + ( 8 ) )
                 	__POINTW2MN _0x4A,8
0004ad d5e9      	RCALL _glcd_outtextxy
                 ; 0000 00F8    }
                 ; 0000 00F9 }
                 _0x51:
0004ae c688      	RJMP _0x2220003
                 ; .FEND
                 
                 	.DSEG
                 _0x4A:
000199           	.BYTE 0xB
                 ;void so_ngay(void)
                 ; 0000 00FB {
                 
                 	.CSEG
                 _so_ngay:
                 ; .FSTART _so_ngay
                 ; 0000 00FC   if(month==2)     // thang 2 nam nhuan co 29 ngay, nam thuong co 28 ngay
0004af e0e2      	LDI  R30,LOW(2)
0004b0 15e7      	CP   R30,R7
0004b1 f439      	BRNE _0x54
                 ; 0000 00FD   {
                 ; 0000 00FE    if(year%4==0)   //&&year%100!=0||year%400==0)
0004b2 d758      	RCALL SUBOPT_0xD
0004b3 f411      	BRNE _0x55
                 ; 0000 00FF    {
                 ; 0000 0100     No_date=29;
0004b4 e1ed      	LDI  R30,LOW(29)
0004b5 c001      	RJMP _0xDA
                 ; 0000 0101    }
                 ; 0000 0102    else
                 _0x55:
                 ; 0000 0103    {
                 ; 0000 0104     No_date=28;
0004b6 e1ec      	LDI  R30,LOW(28)
                 _0xDA:
0004b7 2e9e      	MOV  R9,R30
                 ; 0000 0105    };
                 ; 0000 0106   }
                 ; 0000 0107 
                 ; 0000 0108   else
0004b8 c025      	RJMP _0x57
                 _0x54:
                 ; 0000 0109   {
                 ; 0000 010A    if(month==4||month==6||month==9||month==11)
0004b9 e0e4      	LDI  R30,LOW(4)
0004ba 15e7      	CP   R30,R7
0004bb f049      	BREQ _0x59
0004bc e0e6      	LDI  R30,LOW(6)
0004bd 15e7      	CP   R30,R7
0004be f031      	BREQ _0x59
0004bf e0e9      	LDI  R30,LOW(9)
0004c0 15e7      	CP   R30,R7
0004c1 f019      	BREQ _0x59
0004c2 e0eb      	LDI  R30,LOW(11)
0004c3 15e7      	CP   R30,R7
0004c4 f411      	BRNE _0x58
                 _0x59:
                 ; 0000 010B    {
                 ; 0000 010C     No_date=30;
0004c5 e1ee      	LDI  R30,LOW(30)
0004c6 c016      	RJMP _0xDB
                 ; 0000 010D    }
                 ; 0000 010E 
                 ; 0000 010F    else
                 _0x58:
                 ; 0000 0110    {
                 ; 0000 0111     if(month==1||month==3||month==5||month==7||month==8||month==10||month==12)
0004c7 e0e1      	LDI  R30,LOW(1)
0004c8 15e7      	CP   R30,R7
0004c9 f091      	BREQ _0x5D
0004ca e0e3      	LDI  R30,LOW(3)
0004cb 15e7      	CP   R30,R7
0004cc f079      	BREQ _0x5D
0004cd e0e5      	LDI  R30,LOW(5)
0004ce 15e7      	CP   R30,R7
0004cf f061      	BREQ _0x5D
0004d0 e0e7      	LDI  R30,LOW(7)
0004d1 15e7      	CP   R30,R7
0004d2 f049      	BREQ _0x5D
0004d3 e0e8      	LDI  R30,LOW(8)
0004d4 15e7      	CP   R30,R7
0004d5 f031      	BREQ _0x5D
0004d6 e0ea      	LDI  R30,LOW(10)
0004d7 15e7      	CP   R30,R7
0004d8 f019      	BREQ _0x5D
0004d9 e0ec      	LDI  R30,LOW(12)
0004da 15e7      	CP   R30,R7
0004db f411      	BRNE _0x5C
                 _0x5D:
                 ; 0000 0112     {
                 ; 0000 0113      No_date=31;
0004dc e1ef      	LDI  R30,LOW(31)
                 _0xDB:
0004dd 2e9e      	MOV  R9,R30
                 ; 0000 0114     }
                 ; 0000 0115    };
                 _0x5C:
                 ; 0000 0116   };
                 _0x57:
                 ; 0000 0117 
                 ; 0000 0118 }
0004de 9508      	RET
                 ; .FEND
                 ;void setting(void)
                 ; 0000 011A {
                 _setting:
                 ; .FSTART _setting
                 ; 0000 011B  so_ngay();
0004df dfcf      	RCALL _so_ngay
                 ; 0000 011C //================================================
                 ; 0000 011D  if(mode==1)   //chinh phut
0004e0 e0e1      	LDI  R30,LOW(1)
0004e1 15ec      	CP   R30,R12
0004e2 f4a1      	BRNE _0x5F
                 ; 0000 011E  {
                 ; 0000 011F    if(UP==0)  // phim "UP" nhan
0004e3 9981      	SBIC 0x10,1
0004e4 c008      	RJMP _0x60
                 ; 0000 0120         {
                 ; 0000 0121         if(minn==59)
0004e5 e3eb      	LDI  R30,LOW(59)
0004e6 15e3      	CP   R30,R3
0004e7 f411      	BRNE _0x61
                 ; 0000 0122             {
                 ; 0000 0123             minn=0;
0004e8 2433      	CLR  R3
                 ; 0000 0124             }
                 ; 0000 0125         else
0004e9 c001      	RJMP _0x62
                 _0x61:
                 ; 0000 0126             {
                 ; 0000 0127             minn++;
0004ea 9433      	INC  R3
                 ; 0000 0128             };
                 _0x62:
                 ; 0000 0129         while(!UP); // doi nha phim
                 _0x63:
0004eb 9b81      	SBIS 0x10,1
0004ec cffe      	RJMP _0x63
                 ; 0000 012A         }
                 ; 0000 012B    //==============
                 ; 0000 012C    if(DOWN==0)        // phim "DOWN" nhan
                 _0x60:
0004ed 9980      	SBIC 0x10,0
0004ee c008      	RJMP _0x66
                 ; 0000 012D         {
                 ; 0000 012E         if(minn==0)
0004ef 2033      	TST  R3
0004f0 f419      	BRNE _0x67
                 ; 0000 012F             {
                 ; 0000 0130             minn=59;
0004f1 e3eb      	LDI  R30,LOW(59)
0004f2 2e3e      	MOV  R3,R30
                 ; 0000 0131             }
                 ; 0000 0132         else
0004f3 c001      	RJMP _0x68
                 _0x67:
                 ; 0000 0133             {
                 ; 0000 0134             minn--;
0004f4 943a      	DEC  R3
                 ; 0000 0135             };
                 _0x68:
                 ; 0000 0136         while(!DOWN);
                 _0x69:
0004f5 9b80      	SBIS 0x10,0
0004f6 cffe      	RJMP _0x69
                 ; 0000 0137         }
                 ; 0000 0138  }
                 _0x66:
                 ; 0000 0139  //===============================
                 ; 0000 013A   if(mode==2)   //chinh gio
                 _0x5F:
0004f7 e0e2      	LDI  R30,LOW(2)
0004f8 15ec      	CP   R30,R12
0004f9 f4a1      	BRNE _0x6C
                 ; 0000 013B     {
                 ; 0000 013C    if(UP==0)  // phim "UP" nhan
0004fa 9981      	SBIC 0x10,1
0004fb c008      	RJMP _0x6D
                 ; 0000 013D         {
                 ; 0000 013E         if(hour==23)
0004fc e1e7      	LDI  R30,LOW(23)
0004fd 15e4      	CP   R30,R4
0004fe f411      	BRNE _0x6E
                 ; 0000 013F             {
                 ; 0000 0140             hour=0;
0004ff 2444      	CLR  R4
                 ; 0000 0141             }
                 ; 0000 0142         else
000500 c001      	RJMP _0x6F
                 _0x6E:
                 ; 0000 0143             {
                 ; 0000 0144             hour++;
000501 9443      	INC  R4
                 ; 0000 0145             };
                 _0x6F:
                 ; 0000 0146         while(!UP); // doi nha phim
                 _0x70:
000502 9b81      	SBIS 0x10,1
000503 cffe      	RJMP _0x70
                 ; 0000 0147         }
                 ; 0000 0148    //==============
                 ; 0000 0149    if(DOWN==0)        // phim "DOWN" nhan
                 _0x6D:
000504 9980      	SBIC 0x10,0
000505 c008      	RJMP _0x73
                 ; 0000 014A         {
                 ; 0000 014B         if(hour==0)
000506 2044      	TST  R4
000507 f419      	BRNE _0x74
                 ; 0000 014C             {
                 ; 0000 014D             hour=23;
000508 e1e7      	LDI  R30,LOW(23)
000509 2e4e      	MOV  R4,R30
                 ; 0000 014E             }
                 ; 0000 014F         else
00050a c001      	RJMP _0x75
                 _0x74:
                 ; 0000 0150             {
                 ; 0000 0151             hour--;
00050b 944a      	DEC  R4
                 ; 0000 0152             };
                 _0x75:
                 ; 0000 0153         while(!DOWN);
                 _0x76:
00050c 9b80      	SBIS 0x10,0
00050d cffe      	RJMP _0x76
                 ; 0000 0154         }
                 ; 0000 0155     }
                 _0x73:
                 ; 0000 0156  //===============================
                 ; 0000 0157  if(mode==3) //chinh ngay
                 _0x6C:
00050e e0e3      	LDI  R30,LOW(3)
00050f 15ec      	CP   R30,R12
000510 f4a9      	BRNE _0x79
                 ; 0000 0158     {
                 ; 0000 0159         so_ngay();
000511 df9d      	RCALL _so_ngay
                 ; 0000 015A     //================================
                 ; 0000 015B     if(UP==0) // phim "UP" nhan
000512 9981      	SBIC 0x10,1
000513 c008      	RJMP _0x7A
                 ; 0000 015C         {
                 ; 0000 015D         if(date==No_date)
000514 1498      	CP   R9,R8
000515 f419      	BRNE _0x7B
                 ; 0000 015E             {
                 ; 0000 015F             date=1;
000516 e0e1      	LDI  R30,LOW(1)
000517 2e8e      	MOV  R8,R30
                 ; 0000 0160             }
                 ; 0000 0161         else
000518 c001      	RJMP _0x7C
                 _0x7B:
                 ; 0000 0162             {
                 ; 0000 0163             date++;
000519 9483      	INC  R8
                 ; 0000 0164             };
                 _0x7C:
                 ; 0000 0165         while(!UP);
                 _0x7D:
00051a 9b81      	SBIS 0x10,1
00051b cffe      	RJMP _0x7D
                 ; 0000 0166         }
                 ; 0000 0167     //=========================================
                 ; 0000 0168     if(DOWN==0)        // phim "DOWN" nhan
                 _0x7A:
00051c 9980      	SBIC 0x10,0
00051d c008      	RJMP _0x80
                 ; 0000 0169         {
                 ; 0000 016A 
                 ; 0000 016B         if(date==1)
00051e e0e1      	LDI  R30,LOW(1)
00051f 15e8      	CP   R30,R8
000520 f411      	BRNE _0x81
                 ; 0000 016C             {
                 ; 0000 016D             date=No_date;
000521 2c89      	MOV  R8,R9
                 ; 0000 016E             }
                 ; 0000 016F         else
000522 c001      	RJMP _0x82
                 _0x81:
                 ; 0000 0170             {
                 ; 0000 0171             date--;
000523 948a      	DEC  R8
                 ; 0000 0172             };
                 _0x82:
                 ; 0000 0173         while(!DOWN);
                 _0x83:
000524 9b80      	SBIS 0x10,0
000525 cffe      	RJMP _0x83
                 ; 0000 0174         }
                 ; 0000 0175     }
                 _0x80:
                 ; 0000 0176  //================================================
                 ; 0000 0177     if(mode==4)  //chinh thang
                 _0x79:
000526 e0e4      	LDI  R30,LOW(4)
000527 15ec      	CP   R30,R12
000528 f4b1      	BRNE _0x86
                 ; 0000 0178     {
                 ; 0000 0179         //==================================
                 ; 0000 017A     if(UP==0)
000529 9981      	SBIC 0x10,1
00052a c009      	RJMP _0x87
                 ; 0000 017B         {
                 ; 0000 017C         if(month==12)
00052b e0ec      	LDI  R30,LOW(12)
00052c 15e7      	CP   R30,R7
00052d f419      	BRNE _0x88
                 ; 0000 017D             {
                 ; 0000 017E             month=1;
00052e e0e1      	LDI  R30,LOW(1)
00052f 2e7e      	MOV  R7,R30
                 ; 0000 017F             }
                 ; 0000 0180         else
000530 c001      	RJMP _0x89
                 _0x88:
                 ; 0000 0181             {
                 ; 0000 0182             month++;
000531 9473      	INC  R7
                 ; 0000 0183             };
                 _0x89:
                 ; 0000 0184         while(!UP);                                       // bao co phim nhan
                 _0x8A:
000532 9b81      	SBIS 0x10,1
000533 cffe      	RJMP _0x8A
                 ; 0000 0185         }
                 ; 0000 0186 /////////////////////////////////////////////////////////////
                 ; 0000 0187     if(DOWN==0)
                 _0x87:
000534 9980      	SBIC 0x10,0
000535 c009      	RJMP _0x8D
                 ; 0000 0188         {
                 ; 0000 0189         if(month==1)
000536 e0e1      	LDI  R30,LOW(1)
000537 15e7      	CP   R30,R7
000538 f419      	BRNE _0x8E
                 ; 0000 018A             {
                 ; 0000 018B             month=12;
000539 e0ec      	LDI  R30,LOW(12)
00053a 2e7e      	MOV  R7,R30
                 ; 0000 018C             }
                 ; 0000 018D         else
00053b c001      	RJMP _0x8F
                 _0x8E:
                 ; 0000 018E             {
                 ; 0000 018F             month--;
00053c 947a      	DEC  R7
                 ; 0000 0190             };
                 _0x8F:
                 ; 0000 0191         while(!DOWN);
                 _0x90:
00053d 9b80      	SBIS 0x10,0
00053e cffe      	RJMP _0x90
                 ; 0000 0192         }
                 ; 0000 0193     }
                 _0x8D:
                 ; 0000 0194     //=================================
                 ; 0000 0195     if(mode==5) //chinh nam
                 _0x86:
00053f e0e5      	LDI  R30,LOW(5)
000540 15ec      	CP   R30,R12
000541 f4a1      	BRNE _0x93
                 ; 0000 0196     {
                 ; 0000 0197     if(UP==0)
000542 9981      	SBIC 0x10,1
000543 c008      	RJMP _0x94
                 ; 0000 0198         {
                 ; 0000 0199         if(year==99)
000544 e6e3      	LDI  R30,LOW(99)
000545 15ea      	CP   R30,R10
000546 f411      	BRNE _0x95
                 ; 0000 019A             {
                 ; 0000 019B             year=0;
000547 24aa      	CLR  R10
                 ; 0000 019C             }
                 ; 0000 019D         else
000548 c001      	RJMP _0x96
                 _0x95:
                 ; 0000 019E             {
                 ; 0000 019F             year++;
000549 94a3      	INC  R10
                 ; 0000 01A0             };
                 _0x96:
                 ; 0000 01A1         while(!UP);
                 _0x97:
00054a 9b81      	SBIS 0x10,1
00054b cffe      	RJMP _0x97
                 ; 0000 01A2         }
                 ; 0000 01A3 ///////////////////////////////////////////////////////////////
                 ; 0000 01A4     if(DOWN==0)
                 _0x94:
00054c 9980      	SBIC 0x10,0
00054d c008      	RJMP _0x9A
                 ; 0000 01A5         {
                 ; 0000 01A6         if(year==00)
00054e 20aa      	TST  R10
00054f f419      	BRNE _0x9B
                 ; 0000 01A7             {
                 ; 0000 01A8             year=99;
000550 e6e3      	LDI  R30,LOW(99)
000551 2eae      	MOV  R10,R30
                 ; 0000 01A9             }
                 ; 0000 01AA         else
000552 c001      	RJMP _0x9C
                 _0x9B:
                 ; 0000 01AB             {
                 ; 0000 01AC             year--;
000553 94aa      	DEC  R10
                 ; 0000 01AD             };
                 _0x9C:
                 ; 0000 01AE         while(!DOWN);
                 _0x9D:
000554 9b80      	SBIS 0x10,0
000555 cffe      	RJMP _0x9D
                 ; 0000 01AF         }
                 ; 0000 01B0     }
                 _0x9A:
                 ; 0000 01B1 //====================
                 ; 0000 01B2 if(mode==6)   //chinh phut bao thuc
                 _0x93:
000556 e0e6      	LDI  R30,LOW(6)
000557 15ec      	CP   R30,R12
000558 f4f1      	BRNE _0xA0
                 ; 0000 01B3  {
                 ; 0000 01B4    if(UP==0)  // phim "UP" nhan
000559 9981      	SBIC 0x10,1
00055a c00d      	RJMP _0xA1
                 ; 0000 01B5         {
                 ; 0000 01B6         if(min_set==59)
00055b d6d8      	RCALL SUBOPT_0x16
00055c d89a      	RCALL __EEPROMRDB
00055d 33eb      	CPI  R30,LOW(0x3B)
00055e f419      	BRNE _0xA2
                 ; 0000 01B7             {
                 ; 0000 01B8             min_set=0;
00055f d6d4      	RCALL SUBOPT_0x16
000560 e0e0      	LDI  R30,LOW(0)
000561 c003      	RJMP _0xDC
                 ; 0000 01B9             }
                 ; 0000 01BA         else
                 _0xA2:
                 ; 0000 01BB             {
                 ; 0000 01BC             min_set++;
000562 d6d1      	RCALL SUBOPT_0x16
000563 d893      	RCALL __EEPROMRDB
000564 5fef      	SUBI R30,-LOW(1)
                 _0xDC:
000565 d89d      	RCALL __EEPROMWRB
                 ; 0000 01BD             };
                 ; 0000 01BE         while(!UP); // doi nha phim
                 _0xA4:
000566 9b81      	SBIS 0x10,1
000567 cffe      	RJMP _0xA4
                 ; 0000 01BF         }
                 ; 0000 01C0    //==============
                 ; 0000 01C1    if(DOWN==0)        // phim "DOWN" nhan
                 _0xA1:
000568 9980      	SBIC 0x10,0
000569 c00d      	RJMP _0xA7
                 ; 0000 01C2         {
                 ; 0000 01C3         if(min_set==0)
00056a d6c9      	RCALL SUBOPT_0x16
00056b d88b      	RCALL __EEPROMRDB
00056c 30e0      	CPI  R30,0
00056d f419      	BRNE _0xA8
                 ; 0000 01C4             {
                 ; 0000 01C5             min_set=59;
00056e d6c5      	RCALL SUBOPT_0x16
00056f e3eb      	LDI  R30,LOW(59)
000570 c003      	RJMP _0xDD
                 ; 0000 01C6             }
                 ; 0000 01C7         else
                 _0xA8:
                 ; 0000 01C8             {
                 ; 0000 01C9             min_set--;
000571 d6c2      	RCALL SUBOPT_0x16
000572 d884      	RCALL __EEPROMRDB
000573 50e1      	SUBI R30,LOW(1)
                 _0xDD:
000574 d88e      	RCALL __EEPROMWRB
                 ; 0000 01CA             };
                 ; 0000 01CB         while(!DOWN);
                 _0xAA:
000575 9b80      	SBIS 0x10,0
000576 cffe      	RJMP _0xAA
                 ; 0000 01CC         }
                 ; 0000 01CD  }
                 _0xA7:
                 ; 0000 01CE  //===============================
                 ; 0000 01CF   if(mode==7)   //chinh gio bao thuc
                 _0xA0:
000577 e0e7      	LDI  R30,LOW(7)
000578 15ec      	CP   R30,R12
000579 f4f1      	BRNE _0xAD
                 ; 0000 01D0     {
                 ; 0000 01D1    if(UP==0)  // phim "UP" nhan
00057a 9981      	SBIC 0x10,1
00057b c00d      	RJMP _0xAE
                 ; 0000 01D2         {
                 ; 0000 01D3         if(hour_set==23)
00057c d6ba      	RCALL SUBOPT_0x17
00057d d879      	RCALL __EEPROMRDB
00057e 31e7      	CPI  R30,LOW(0x17)
00057f f419      	BRNE _0xAF
                 ; 0000 01D4             {
                 ; 0000 01D5             hour_set=0;
000580 d6b6      	RCALL SUBOPT_0x17
000581 e0e0      	LDI  R30,LOW(0)
000582 c003      	RJMP _0xDE
                 ; 0000 01D6             }
                 ; 0000 01D7         else
                 _0xAF:
                 ; 0000 01D8             {
                 ; 0000 01D9             hour_set++;
000583 d6b3      	RCALL SUBOPT_0x17
000584 d872      	RCALL __EEPROMRDB
000585 5fef      	SUBI R30,-LOW(1)
                 _0xDE:
000586 d87c      	RCALL __EEPROMWRB
                 ; 0000 01DA             };
                 ; 0000 01DB         while(!UP); // doi nha phim
                 _0xB1:
000587 9b81      	SBIS 0x10,1
000588 cffe      	RJMP _0xB1
                 ; 0000 01DC         }
                 ; 0000 01DD    //==============
                 ; 0000 01DE    if(DOWN==0)        // phim "DOWN" nhan
                 _0xAE:
000589 9980      	SBIC 0x10,0
00058a c00d      	RJMP _0xB4
                 ; 0000 01DF         {
                 ; 0000 01E0         if(hour_set==0)
00058b d6ab      	RCALL SUBOPT_0x17
00058c d86a      	RCALL __EEPROMRDB
00058d 30e0      	CPI  R30,0
00058e f419      	BRNE _0xB5
                 ; 0000 01E1             {
                 ; 0000 01E2             hour_set=23;
00058f d6a7      	RCALL SUBOPT_0x17
000590 e1e7      	LDI  R30,LOW(23)
000591 c003      	RJMP _0xDF
                 ; 0000 01E3             }
                 ; 0000 01E4         else
                 _0xB5:
                 ; 0000 01E5             {
                 ; 0000 01E6             hour_set--;
000592 d6a4      	RCALL SUBOPT_0x17
000593 d863      	RCALL __EEPROMRDB
000594 50e1      	SUBI R30,LOW(1)
                 _0xDF:
000595 d86d      	RCALL __EEPROMWRB
                 ; 0000 01E7             };
                 ; 0000 01E8         while(!DOWN);
                 _0xB7:
000596 9b80      	SBIS 0x10,0
000597 cffe      	RJMP _0xB7
                 ; 0000 01E9         }
                 ; 0000 01EA     }
                 _0xB4:
                 ; 0000 01EB   //===================
                 ; 0000 01EC   if(mode==8)   //chon on/off bao thuc
                 _0xAD:
000598 e0e8      	LDI  R30,LOW(8)
000599 15ec      	CP   R30,R12
00059a f521      	BRNE _0xBA
                 ; 0000 01ED   {
                 ; 0000 01EE     if(alarm==1) glcd_putimage(43,52,alarm_on,GLCD_PUTCOPY);
00059b d69e      	RCALL SUBOPT_0x18
00059c 30e1      	CPI  R30,LOW(0x1)
00059d f421      	BRNE _0xBB
00059e d69f      	RCALL SUBOPT_0x19
00059f efed      	LDI  R30,LOW(_alarm_on)
0005a0 e0f1      	LDI  R31,HIGH(_alarm_on)
0005a1 c003      	RJMP _0xE0
                 ; 0000 01EF     else glcd_putimage(43,52,alarm_off,GLCD_PUTCOPY);
                 _0xBB:
0005a2 d69b      	RCALL SUBOPT_0x19
0005a3 e0e9      	LDI  R30,LOW(_alarm_off)
0005a4 e0f2      	LDI  R31,HIGH(_alarm_off)
                 _0xE0:
0005a5 93fa      	ST   -Y,R31
0005a6 93ea      	ST   -Y,R30
0005a7 d69b      	RCALL SUBOPT_0x1A
                 ; 0000 01F0     if(UP==0)
0005a8 9981      	SBIC 0x10,1
0005a9 c009      	RJMP _0xBD
                 ; 0000 01F1     {
                 ; 0000 01F2      alarm++;
0005aa d68f      	RCALL SUBOPT_0x18
0005ab 5fef      	SUBI R30,-LOW(1)
0005ac d856      	RCALL __EEPROMWRB
                 ; 0000 01F3      if(alarm==2) alarm=0;
0005ad d68c      	RCALL SUBOPT_0x18
0005ae 30e2      	CPI  R30,LOW(0x2)
0005af f419      	BRNE _0xBE
0005b0 e0a2      	LDI  R26,LOW(_alarm)
0005b1 e0b0      	LDI  R27,HIGH(_alarm)
0005b2 d692      	RCALL SUBOPT_0x1B
                 ; 0000 01F4     }
                 _0xBE:
                 ; 0000 01F5     if(DOWN==0)
                 _0xBD:
0005b3 9980      	SBIC 0x10,0
0005b4 c00a      	RJMP _0xBF
                 ; 0000 01F6     {
                 ; 0000 01F7      alarm--;
0005b5 d684      	RCALL SUBOPT_0x18
0005b6 50e1      	SUBI R30,LOW(1)
0005b7 d84b      	RCALL __EEPROMWRB
                 ; 0000 01F8      if(alarm==0) alarm=1;
0005b8 d681      	RCALL SUBOPT_0x18
0005b9 30e0      	CPI  R30,0
0005ba f421      	BRNE _0xC0
0005bb e0a2      	LDI  R26,LOW(_alarm)
0005bc e0b0      	LDI  R27,HIGH(_alarm)
0005bd e0e1      	LDI  R30,LOW(1)
0005be d844      	RCALL __EEPROMWRB
                 ; 0000 01F9     }
                 _0xC0:
                 ; 0000 01FA   }
                 _0xBF:
                 ; 0000 01FB 
                 ; 0000 01FC }
                 _0xBA:
0005bf 9508      	RET
                 ; .FEND
                 ;
                 ;void setDisplay()
                 ; 0000 01FF {
                 _setDisplay:
                 ; .FSTART _setDisplay
                 ; 0000 0200 getTime();
0005c0 dd1c      	RCALL _getTime
                 ; 0000 0201 if(hour>17 || hour<6) glcd_putimage(57,2,moon,GLCD_PUTCOPY);
0005c1 e1e1      	LDI  R30,LOW(17)
0005c2 15e4      	CP   R30,R4
0005c3 f018      	BRLO _0xC2
0005c4 e0e6      	LDI  R30,LOW(6)
0005c5 164e      	CP   R4,R30
0005c6 f420      	BRSH _0xC1
                 _0xC2:
0005c7 d680      	RCALL SUBOPT_0x1C
0005c8 ece1      	LDI  R30,LOW(_moon)
0005c9 e0f1      	LDI  R31,HIGH(_moon)
0005ca c003      	RJMP _0xE1
                 ; 0000 0202 else glcd_putimage(57,2,sun,GLCD_PUTCOPY);
                 _0xC1:
0005cb d67c      	RCALL SUBOPT_0x1C
0005cc edef      	LDI  R30,LOW(_sun)
0005cd e0f1      	LDI  R31,HIGH(_sun)
                 _0xE1:
0005ce 93fa      	ST   -Y,R31
0005cf 93ea      	ST   -Y,R30
0005d0 d672      	RCALL SUBOPT_0x1A
                 ; 0000 0203 
                 ; 0000 0204 if(alarm==1) glcd_putimage(43,52,alarm_on,GLCD_PUTCOPY);
0005d1 d668      	RCALL SUBOPT_0x18
0005d2 30e1      	CPI  R30,LOW(0x1)
0005d3 f421      	BRNE _0xC5
0005d4 d669      	RCALL SUBOPT_0x19
0005d5 efed      	LDI  R30,LOW(_alarm_on)
0005d6 e0f1      	LDI  R31,HIGH(_alarm_on)
0005d7 c003      	RJMP _0xE2
                 ; 0000 0205 else glcd_putimage(43,52,alarm_off,GLCD_PUTCOPY);
                 _0xC5:
0005d8 d665      	RCALL SUBOPT_0x19
0005d9 e0e9      	LDI  R30,LOW(_alarm_off)
0005da e0f2      	LDI  R31,HIGH(_alarm_off)
                 _0xE2:
0005db 93fa      	ST   -Y,R31
0005dc 93ea      	ST   -Y,R30
0005dd d665      	RCALL SUBOPT_0x1A
                 ; 0000 0206 }
0005de 9508      	RET
                 ; .FEND
                 ;void main(void)
                 ; 0000 0208 {
                 _main:
                 ; .FSTART _main
                 ; 0000 0209 
                 ; 0000 020A GLCDINIT_t glcd_init_data;
                 ; 0000 020B 
                 ; 0000 020C // Input/Output Ports initialization
                 ; 0000 020D // Port B initialization
                 ; 0000 020E // Function: Bit7=In Bit6=In Bit5=Out Bit4=Out Bit3=Out Bit2=Out Bit1=Out Bit0=Out
                 ; 0000 020F DDRB=(0<<DDB7) | (0<<DDB6) | (1<<DDB5) | (1<<DDB4) | (1<<DDB3) | (1<<DDB2) | (1<<DDB1) | (1<<DDB0);
0005df 9726      	SBIW R28,6
                 ;	glcd_init_data -> Y+0
0005e0 e3ef      	LDI  R30,LOW(63)
0005e1 bbe7      	OUT  0x17,R30
                 ; 0000 0210 // State: Bit7=T Bit6=T Bit5=0 Bit4=0 Bit3=0 Bit2=0 Bit1=0 Bit0=0
                 ; 0000 0211 PORTB=(0<<PORTB7) | (0<<PORTB6) | (0<<PORTB5) | (0<<PORTB4) | (0<<PORTB3) | (0<<PORTB2) | (0<<PORTB1) | (0<<PORTB0);
0005e2 e0e0      	LDI  R30,LOW(0)
0005e3 bbe8      	OUT  0x18,R30
                 ; 0000 0212 
                 ; 0000 0213 // Port C initialization
                 ; 0000 0214 // Function: Bit6=In Bit5=In Bit4=In Bit3=In Bit2=In Bit1=Out Bit0=In
                 ; 0000 0215 DDRC=(0<<DDC6) | (0<<DDC5) | (0<<DDC4) | (0<<DDC3) | (0<<DDC2) | (1<<DDC1) | (0<<DDC0);
0005e4 e0e2      	LDI  R30,LOW(2)
0005e5 bbe4      	OUT  0x14,R30
                 ; 0000 0216 // State: Bit6=T Bit5=T Bit4=T Bit3=T Bit2=T Bit1=0 Bit0=T
                 ; 0000 0217 PORTC=(0<<PORTC6) | (0<<PORTC5) | (0<<PORTC4) | (0<<PORTC3) | (0<<PORTC2) | (0<<PORTC1) | (0<<PORTC0);
0005e6 e0e0      	LDI  R30,LOW(0)
0005e7 bbe5      	OUT  0x15,R30
                 ; 0000 0218 
                 ; 0000 0219 // Port D initialization
                 ; 0000 021A // Function: Bit7=Out Bit6=Out Bit5=Out Bit4=In Bit3=In Bit2=In Bit1=In Bit0=In
                 ; 0000 021B DDRD=(1<<DDD7) | (1<<DDD6) | (1<<DDD5) | (0<<DDD4) | (0<<DDD3) | (0<<DDD2) | (0<<DDD1) | (0<<DDD0);
0005e8 eee0      	LDI  R30,LOW(224)
0005e9 bbe1      	OUT  0x11,R30
                 ; 0000 021C // State: Bit7=0 Bit6=0 Bit5=0 Bit4=T Bit3=P Bit2=P Bit1=P Bit0=P
                 ; 0000 021D PORTD=(0<<PORTD7) | (0<<PORTD6) | (0<<PORTD5) | (0<<PORTD4) | (1<<PORTD3) | (1<<PORTD2) | (1<<PORTD1) | (1<<PORTD0);
0005ea e0ef      	LDI  R30,LOW(15)
0005eb bbe2      	OUT  0x12,R30
                 ; 0000 021E 
                 ; 0000 021F // Timer/Counter 0 initialization
                 ; 0000 0220 // Clock source: System Clock
                 ; 0000 0221 // Clock value: 1000.000 kHz
                 ; 0000 0222 TCCR0=(0<<CS02) | (0<<CS01) | (0<<CS00);
0005ec e0e0      	LDI  R30,LOW(0)
0005ed bfe3      	OUT  0x33,R30
                 ; 0000 0223 TCNT0=0x00;
0005ee bfe2      	OUT  0x32,R30
                 ; 0000 0224 
                 ; 0000 0225 // Timer/Counter 1 initialization
                 ; 0000 0226 // Clock source: System Clock
                 ; 0000 0227 // Clock value: 125.000 kHz
                 ; 0000 0228 // Mode: Normal top=0xFFFF
                 ; 0000 0229 // OC1A output: Disconnected
                 ; 0000 022A // OC1B output: Disconnected
                 ; 0000 022B // Noise Canceler: Off
                 ; 0000 022C // Input Capture on Falling Edge
                 ; 0000 022D // Timer Period: 0.52429 s
                 ; 0000 022E // Timer1 Overflow Interrupt: On
                 ; 0000 022F // Input Capture Interrupt: Off
                 ; 0000 0230 // Compare A Match Interrupt: Off
                 ; 0000 0231 // Compare B Match Interrupt: Off
                 ; 0000 0232 TCCR1A=(0<<COM1A1) | (0<<COM1A0) | (0<<COM1B1) | (0<<COM1B0) | (0<<WGM11) | (0<<WGM10);
0005ef bdef      	OUT  0x2F,R30
                 ; 0000 0233 TCCR1B=(0<<ICNC1) | (0<<ICES1) | (0<<WGM13) | (0<<WGM12) | (0<<CS12) | (1<<CS11) | (0<<CS10);
0005f0 e0e2      	LDI  R30,LOW(2)
0005f1 bdee      	OUT  0x2E,R30
                 ; 0000 0234 TCNT1H=0x00;
0005f2 e0e0      	LDI  R30,LOW(0)
0005f3 bded      	OUT  0x2D,R30
                 ; 0000 0235 TCNT1L=0x00;
0005f4 bdec      	OUT  0x2C,R30
                 ; 0000 0236 ICR1H=0x00;
0005f5 bde7      	OUT  0x27,R30
                 ; 0000 0237 ICR1L=0x00;
0005f6 bde6      	OUT  0x26,R30
                 ; 0000 0238 OCR1AH=0x00;
0005f7 bdeb      	OUT  0x2B,R30
                 ; 0000 0239 OCR1AL=0x00;
0005f8 bdea      	OUT  0x2A,R30
                 ; 0000 023A OCR1BH=0x00;
0005f9 bde9      	OUT  0x29,R30
                 ; 0000 023B OCR1BL=0x00;
0005fa bde8      	OUT  0x28,R30
                 ; 0000 023C 
                 ; 0000 023D // Timer(s)/Counter(s) Interrupt(s) initialization
                 ; 0000 023E TIMSK=(0<<OCIE2) | (0<<TOIE2) | (0<<TICIE1) | (0<<OCIE1A) | (0<<OCIE1B) | (1<<TOIE1) | (0<<TOIE0);
0005fb e0e4      	LDI  R30,LOW(4)
0005fc bfe9      	OUT  0x39,R30
                 ; 0000 023F 
                 ; 0000 0240 // External Interrupt(s) initialization
                 ; 0000 0241 // INT0: On
                 ; 0000 0242 // INT0 Mode: Falling Edge
                 ; 0000 0243 // INT1: On
                 ; 0000 0244 // INT1 Mode: Falling Edge
                 ; 0000 0245 GICR|=(1<<INT1) | (1<<INT0);
0005fd b7eb      	IN   R30,0x3B
0005fe 6ce0      	ORI  R30,LOW(0xC0)
0005ff bfeb      	OUT  0x3B,R30
                 ; 0000 0246 MCUCR=(1<<ISC11) | (0<<ISC10) | (1<<ISC01) | (0<<ISC00);
000600 e0ea      	LDI  R30,LOW(10)
000601 bfe5      	OUT  0x35,R30
                 ; 0000 0247 GIFR=(1<<INTF1) | (1<<INTF0);
000602 ece0      	LDI  R30,LOW(192)
000603 bfea      	OUT  0x3A,R30
                 ; 0000 0248 
                 ; 0000 0249 // Bit-Banged I2C Bus initialization
                 ; 0000 024A // I2C Port: PORTC
                 ; 0000 024B // I2C SDA bit: 4
                 ; 0000 024C // I2C SCL bit: 5
                 ; 0000 024D // Bit Rate: 100 kHz
                 ; 0000 024E // Note: I2C settings are specified in the
                 ; 0000 024F // Project|Configure|C Compiler|Libraries|I2C menu.
                 ; 0000 0250 i2c_init();
000604 d71e      	RCALL _i2c_init
                 ; 0000 0251 
                 ; 0000 0252 // DS1307 Real Time Clock initialization
                 ; 0000 0253 // Square wave output on pin SQW/OUT: Off
                 ; 0000 0254 // SQW/OUT pin state: 0
                 ; 0000 0255 rtc_init(0,0,0);
000605 d647      	RCALL SUBOPT_0x1D
000606 d646      	RCALL SUBOPT_0x1D
000607 e0a0      	LDI  R26,LOW(0)
000608 d4d1      	RCALL _rtc_init
                 ; 0000 0256 
                 ; 0000 0257 // Graphic Display Controller initialization
                 ; 0000 0258 // The ST7920 connections are specified in the
                 ; 0000 0259 // Project|Configure|C Compiler|Libraries|Graphic Display menu:
                 ; 0000 025A // E - PORTD Bit 7
                 ; 0000 025B // R /W - PORTD Bit 6
                 ; 0000 025C // RS - PORTD Bit 5
                 ; 0000 025D // /RST - PORTB Bit 4
                 ; 0000 025E // DB4 - PORTB Bit 0
                 ; 0000 025F // DB5 - PORTB Bit 1
                 ; 0000 0260 // DB6 - PORTB Bit 2
                 ; 0000 0261 // DB7 - PORTB Bit 3
                 ; 0000 0262 
                 ; 0000 0263 // Specify the current font for displaying text
                 ; 0000 0264 glcd_init_data.font=font5x7;
000609 e2e6      	LDI  R30,LOW(_font5x7*2)
00060a e0f0      	LDI  R31,HIGH(_font5x7*2)
00060b 83e8      	ST   Y,R30
00060c 83f9      	STD  Y+1,R31
                 ; 0000 0265 // No function is used for reading
                 ; 0000 0266 // image data from external memory
                 ; 0000 0267 glcd_init_data.readxmem=NULL;
00060d e0e0      	LDI  R30,LOW(0)
00060e 83ea      	STD  Y+2,R30
00060f 83eb      	STD  Y+2+1,R30
                 ; 0000 0268 // No function is used for writing
                 ; 0000 0269 // image data to external memory
                 ; 0000 026A glcd_init_data.writexmem=NULL;
000610 83ec      	STD  Y+4,R30
000611 83ed      	STD  Y+4+1,R30
                 ; 0000 026B 
                 ; 0000 026C glcd_init(&glcd_init_data);
000612 01de      	MOVW R26,R28
000613 d0bc      	RCALL _glcd_init
                 ; 0000 026D 
                 ; 0000 026E // Global enable interrupts
                 ; 0000 026F #asm("sei")
000614 9478      	sei
                 ; 0000 0270 //glcd_rectangle(0,0,127,63);
                 ; 0000 0271 //glcd_line(5,17,122,17);
                 ; 0000 0272 //glcd_line(8,18,119,18);
                 ; 0000 0273 //glcd_line(5,47,122,47);
                 ; 0000 0274 //glcd_line(8,48,119,48);
                 ; 0000 0275 if(alarm==255)
000615 d624      	RCALL SUBOPT_0x18
000616 3fef      	CPI  R30,LOW(0xFF)
000617 f439      	BRNE _0xC7
                 ; 0000 0276 {
                 ; 0000 0277   alarm=0;
000618 e0a2      	LDI  R26,LOW(_alarm)
000619 e0b0      	LDI  R27,HIGH(_alarm)
00061a d62a      	RCALL SUBOPT_0x1B
                 ; 0000 0278   min_set=0;
00061b d618      	RCALL SUBOPT_0x16
00061c d628      	RCALL SUBOPT_0x1B
                 ; 0000 0279   hour_set=0;
00061d d619      	RCALL SUBOPT_0x17
00061e d626      	RCALL SUBOPT_0x1B
                 ; 0000 027A }
                 ; 0000 027B 
                 ; 0000 027C setDisplay();
                 _0xC7:
00061f dfa0      	RCALL _setDisplay
                 ; 0000 027D while (1)
                 _0xC8:
                 ; 0000 027E       {
                 ; 0000 027F         timeDisplay(42,20);
000620 e2ea      	LDI  R30,LOW(42)
000621 93ea      	ST   -Y,R30
000622 e1a4      	LDI  R26,LOW(20)
000623 dcce      	RCALL _timeDisplay
                 ; 0000 0280         dateDisplay(31,37);
000624 e1ef      	LDI  R30,LOW(31)
000625 93ea      	ST   -Y,R30
000626 e2a5      	LDI  R26,LOW(37)
000627 dd01      	RCALL _dateDisplay
                 ; 0000 0281         alarmDisplay(43,52);
000628 e2eb      	LDI  R30,LOW(43)
000629 93ea      	ST   -Y,R30
00062a e3a4      	LDI  R26,LOW(52)
00062b de43      	RCALL _alarmDisplay
                 ; 0000 0282         if(mode==0)
00062c 20cc      	TST  R12
00062d f491      	BRNE _0xCB
                 ; 0000 0283         {
                 ; 0000 0284         getTime();
00062e dcae      	RCALL _getTime
                 ; 0000 0285         //tempDisplay(88,2,15,2);
                 ; 0000 0286          if(hour==6) glcd_putimage(57,2,sun,GLCD_PUTCOPY);
00062f e0e6      	LDI  R30,LOW(6)
000630 15e4      	CP   R30,R4
000631 f429      	BRNE _0xCC
000632 d615      	RCALL SUBOPT_0x1C
000633 edef      	LDI  R30,LOW(_sun)
000634 e0f1      	LDI  R31,HIGH(_sun)
000635 d591      	RCALL SUBOPT_0x2
000636 d60c      	RCALL SUBOPT_0x1A
                 ; 0000 0287 
                 ; 0000 0288          if(hour==18) glcd_putimage(57,2,moon,GLCD_PUTCOPY);
                 _0xCC:
000637 e1e2      	LDI  R30,LOW(18)
000638 15e4      	CP   R30,R4
000639 f429      	BRNE _0xCD
00063a d60d      	RCALL SUBOPT_0x1C
00063b ece1      	LDI  R30,LOW(_moon)
00063c e0f1      	LDI  R31,HIGH(_moon)
00063d d589      	RCALL SUBOPT_0x2
00063e d604      	RCALL SUBOPT_0x1A
                 ; 0000 0289         }
                 _0xCD:
                 ; 0000 028A         else
00063f c002      	RJMP _0xCE
                 _0xCB:
                 ; 0000 028B         {
                 ; 0000 028C           timer0_init();
000640 dc54      	RCALL _timer0_init
                 ; 0000 028D           setting();
000641 de9d      	RCALL _setting
                 ; 0000 028E         }
                 _0xCE:
                 ; 0000 028F 
                 ; 0000 0290       }
000642 cfdd      	RJMP _0xC8
                 ; 0000 0291 }
                 _0xCF:
000643 cfff      	RJMP _0xCF
                 ; .FEND
                 	#ifndef __SLEEP_DEFINED__
                 	#endif
                 
                 	.CSEG
                 _st7920_delay_G100:
                 ; .FSTART _st7920_delay_G100
000644 0000          nop
000645 0000          nop
000646 0000          nop
000647 9508      	RET
                 ; .FEND
                 _st7920_wrbus_G100:
                 ; .FSTART _st7920_wrbus_G100
000648 93aa      	ST   -Y,R26
000649 9896      	CBI  0x12,6
00064a 9a97      	SBI  0x12,7
00064b b3e7      	IN   R30,0x17
00064c 60ef      	ORI  R30,LOW(0xF)
00064d bbe7      	OUT  0x17,R30
00064e d601      	RCALL SUBOPT_0x1E
00064f 95e2      	SWAP R30
000650 70ef      	ANDI R30,0xF
000651 2bea      	OR   R30,R26
000652 bbe8      	OUT  0x18,R30
000653 dff0      	RCALL _st7920_delay_G100
000654 9897      	CBI  0x12,7
000655 d5fa      	RCALL SUBOPT_0x1E
000656 70ef      	ANDI R30,LOW(0xF)
000657 2bea      	OR   R30,R26
000658 bbe8      	OUT  0x18,R30
000659 d5fb      	RCALL SUBOPT_0x1F
00065a 9897      	CBI  0x12,7
00065b c055      	RJMP _0x222000A
                 ; .FEND
                 _st7920_rdbus_G100:
                 ; .FSTART _st7920_rdbus_G100
00065c 931a      	ST   -Y,R17
00065d d5fa      	RCALL SUBOPT_0x20
00065e 9a97      	SBI  0x12,7
00065f dfe4      	RCALL _st7920_delay_G100
000660 b3e6      	IN   R30,0x16
000661 95e2      	SWAP R30
000662 7fe0      	ANDI R30,0xF0
000663 2f1e      	MOV  R17,R30
000664 9897      	CBI  0x12,7
000665 d5ef      	RCALL SUBOPT_0x1F
000666 b3e6      	IN   R30,0x16
000667 70ef      	ANDI R30,LOW(0xF)
000668 2b1e      	OR   R17,R30
000669 9897      	CBI  0x12,7
00066a 2fe1      	MOV  R30,R17
00066b c010      	RJMP _0x222000B
                 ; .FEND
                 _st7920_busy_G100:
                 ; .FSTART _st7920_busy_G100
00066c 931a      	ST   -Y,R17
00066d 9895      	CBI  0x12,5
00066e d5e9      	RCALL SUBOPT_0x20
                 _0x2000004:
00066f 9a97      	SBI  0x12,7
000670 dfd3      	RCALL _st7920_delay_G100
000671 b3e6      	IN   R30,0x16
000672 70e8      	ANDI R30,LOW(0x8)
000673 e0a0      	LDI  R26,LOW(0)
000674 d71d      	RCALL __NEB12
000675 2f1e      	MOV  R17,R30
000676 9897      	CBI  0x12,7
000677 d5dd      	RCALL SUBOPT_0x1F
000678 9897      	CBI  0x12,7
000679 dfca      	RCALL _st7920_delay_G100
00067a 3010      	CPI  R17,0
00067b f799      	BRNE _0x2000004
                 _0x222000B:
00067c 9119      	LD   R17,Y+
00067d 9508      	RET
                 ; .FEND
                 _st7920_wrdata:
                 ; .FSTART _st7920_wrdata
00067e 93aa      	ST   -Y,R26
00067f dfec      	RCALL _st7920_busy_G100
000680 9a95      	SBI  0x12,5
000681 81a8      	LD   R26,Y
000682 dfc5      	RCALL _st7920_wrbus_G100
000683 c02d      	RJMP _0x222000A
                 ; .FEND
                 _st7920_rddata:
                 ; .FSTART _st7920_rddata
000684 dfe7      	RCALL _st7920_busy_G100
000685 9a95      	SBI  0x12,5
000686 dfd5      	RCALL _st7920_rdbus_G100
000687 9508      	RET
                 ; .FEND
                 _st7920_wrcmd:
                 ; .FSTART _st7920_wrcmd
000688 93aa      	ST   -Y,R26
000689 dfe2      	RCALL _st7920_busy_G100
00068a 81a8      	LD   R26,Y
00068b dfbc      	RCALL _st7920_wrbus_G100
00068c c024      	RJMP _0x222000A
                 ; .FEND
                 _st7920_setxy_G100:
                 ; .FSTART _st7920_setxy_G100
00068d 93aa      	ST   -Y,R26
00068e 81e8      	LD   R30,Y
00068f 71ef      	ANDI R30,LOW(0x1F)
000690 68e0      	ORI  R30,0x80
000691 d5cb      	RCALL SUBOPT_0x21
000692 81a8      	LD   R26,Y
000693 32a0      	CPI  R26,LOW(0x20)
000694 f018      	BRLO _0x2000006
000695 81e9      	LDD  R30,Y+1
000696 68e0      	ORI  R30,0x80
000697 83e9      	STD  Y+1,R30
                 _0x2000006:
000698 81e9      	LDD  R30,Y+1
000699 95e2      	SWAP R30
00069a 70ef      	ANDI R30,0xF
00069b 68e0      	ORI  R30,0x80
00069c d5c0      	RCALL SUBOPT_0x21
00069d c499      	RJMP _0x2220003
                 ; .FEND
                 _glcd_display:
                 ; .FSTART _glcd_display
00069e 93aa      	ST   -Y,R26
00069f d5bf      	RCALL SUBOPT_0x22
0006a0 81e8      	LD   R30,Y
0006a1 30e0      	CPI  R30,0
0006a2 f011      	BREQ _0x2000007
0006a3 e0ec      	LDI  R30,LOW(12)
0006a4 c001      	RJMP _0x2000008
                 _0x2000007:
0006a5 e0e8      	LDI  R30,LOW(8)
                 _0x2000008:
0006a6 d5b6      	RCALL SUBOPT_0x21
0006a7 81e8      	LD   R30,Y
0006a8 30e0      	CPI  R30,0
0006a9 f011      	BREQ _0x200000A
0006aa e0e2      	LDI  R30,LOW(2)
0006ab c001      	RJMP _0x200000B
                 _0x200000A:
0006ac e0e0      	LDI  R30,LOW(0)
                 _0x200000B:
0006ad 93e0 0215 	STS  _st7920_graphics_on_G100,R30
0006af d5af      	RCALL SUBOPT_0x22
0006b0 d5b2      	RCALL SUBOPT_0x23
                 _0x222000A:
0006b1 9621      	ADIW R28,1
0006b2 9508      	RET
                 ; .FEND
                 _glcd_cleargraphics:
                 ; .FSTART _glcd_cleargraphics
0006b3 d766      	RCALL __SAVELOCR4
0006b4 e030      	LDI  R19,0
                +
0006b5 91e0 01a5+LDS R30 , _glcd_state + ( 1 )
                 	__GETB1MN _glcd_state,1
0006b7 30e0      	CPI  R30,0
0006b8 f009      	BREQ _0x200000D
0006b9 ef3f      	LDI  R19,LOW(255)
                 _0x200000D:
0006ba d5a8      	RCALL SUBOPT_0x23
0006bb e000      	LDI  R16,LOW(0)
                 _0x200000E:
0006bc 3400      	CPI  R16,64
0006bd f468      	BRSH _0x2000010
0006be d58e      	RCALL SUBOPT_0x1D
0006bf 2fa0      	MOV  R26,R16
0006c0 5f0f      	SUBI R16,-1
0006c1 dfcb      	RCALL _st7920_setxy_G100
0006c2 e110      	LDI  R17,LOW(16)
                 _0x2000011:
0006c3 2fe1      	MOV  R30,R17
0006c4 5011      	SUBI R17,1
0006c5 30e0      	CPI  R30,0
0006c6 f019      	BREQ _0x2000013
0006c7 2fa3      	MOV  R26,R19
0006c8 dfb5      	RCALL _st7920_wrdata
0006c9 cff9      	RJMP _0x2000011
                 _0x2000013:
0006ca cff1      	RJMP _0x200000E
                 _0x2000010:
0006cb d581      	RCALL SUBOPT_0x1D
0006cc e0a0      	LDI  R26,LOW(0)
0006cd d402      	RCALL _glcd_moveto
0006ce d752      	RCALL __LOADLOCR4
0006cf c4c4      	RJMP _0x2220001
                 ; .FEND
                 _glcd_init:
                 ; .FSTART _glcd_init
0006d0 d596      	RCALL SUBOPT_0x24
0006d1 931a      	ST   -Y,R17
0006d2 9a8f      	SBI  0x11,7
0006d3 9897      	CBI  0x12,7
0006d4 9a8e      	SBI  0x11,6
0006d5 9a96      	SBI  0x12,6
0006d6 9a8d      	SBI  0x11,5
0006d7 9895      	CBI  0x12,5
0006d8 9abc      	SBI  0x17,4
0006d9 e3a2      	LDI  R26,LOW(50)
0006da d58f      	RCALL SUBOPT_0x25
0006db 98c4      	CBI  0x18,4
0006dc e0a1      	LDI  R26,LOW(1)
0006dd d58c      	RCALL SUBOPT_0x25
0006de 9ac4      	SBI  0x18,4
0006df e0a1      	LDI  R26,LOW(1)
0006e0 d589      	RCALL SUBOPT_0x25
0006e1 9896      	CBI  0x12,6
0006e2 b3e7      	IN   R30,0x17
0006e3 60ef      	ORI  R30,LOW(0xF)
0006e4 bbe7      	OUT  0x17,R30
0006e5 e010      	LDI  R17,LOW(0)
                 _0x2000015:
0006e6 3016      	CPI  R17,6
0006e7 f4a0      	BRSH _0x2000016
0006e8 9a97      	SBI  0x12,7
0006e9 b3e8      	IN   R30,0x18
0006ea 7fe0      	ANDI R30,LOW(0xF0)
0006eb 2fae      	MOV  R26,R30
0006ec 2fe1      	MOV  R30,R17
0006ed e0f0      	LDI  R31,0
0006ee 57ee      	SUBI R30,LOW(-_st7920_init_4bit_G100*2)
0006ef 4ffc      	SBCI R31,HIGH(-_st7920_init_4bit_G100*2)
0006f0 91e4      	LPM  R30,Z
0006f1 2bea      	OR   R30,R26
0006f2 bbe8      	OUT  0x18,R30
                +
0006f3 e082     +LDI R24 , LOW ( 2 )
                +__DELAY_USB_LOOP :
0006f4 958a     +DEC R24
0006f5 f7f1     +BRNE __DELAY_USB_LOOP
                 	__DELAY_USB 2
0006f6 9897      	CBI  0x12,7
                +
0006f7 e483     +LDI R24 , LOW ( 67 )
                +__DELAY_USB_LOOP :
0006f8 958a     +DEC R24
0006f9 f7f1     +BRNE __DELAY_USB_LOOP
                 	__DELAY_USB 67
0006fa 5f1f      	SUBI R17,-1
0006fb cfea      	RJMP _0x2000015
                 _0x2000016:
0006fc e0a8      	LDI  R26,LOW(8)
0006fd df4a      	RCALL _st7920_wrbus_G100
                +
0006fe e483     +LDI R24 , LOW ( 67 )
                +__DELAY_USB_LOOP :
0006ff 958a     +DEC R24
000700 f7f1     +BRNE __DELAY_USB_LOOP
                 	__DELAY_USB 67
000701 e0a1      	LDI  R26,LOW(1)
000702 df85      	RCALL _st7920_wrcmd
000703 e0af      	LDI  R26,LOW(15)
000704 d565      	RCALL SUBOPT_0x25
000705 e0e0      	LDI  R30,LOW(0)
000706 93e0 0218 	STS  _yt_G100,R30
000708 93e0 0217 	STS  _xt_G100,R30
00070a e0a6      	LDI  R26,LOW(6)
00070b df7c      	RCALL _st7920_wrcmd
00070c e2a4      	LDI  R26,LOW(36)
00070d df7a      	RCALL _st7920_wrcmd
00070e e4a0      	LDI  R26,LOW(64)
00070f df78      	RCALL _st7920_wrcmd
000710 e0a2      	LDI  R26,LOW(2)
000711 df76      	RCALL _st7920_wrcmd
000712 e0e0      	LDI  R30,LOW(0)
000713 93e0 0215 	STS  _st7920_graphics_on_G100,R30
000715 df9d      	RCALL _glcd_cleargraphics
000716 e0a1      	LDI  R26,LOW(1)
000717 df86      	RCALL _glcd_display
000718 e0e1      	LDI  R30,LOW(1)
000719 93e0 01a4 	STS  _glcd_state,R30
00071b e0e0      	LDI  R30,LOW(0)
                +
00071c 93e0 01a5+STS _glcd_state + ( 1 ) , R30
                 	__PUTB1MN _glcd_state,1
00071e e0e1      	LDI  R30,LOW(1)
                +
00071f 93e0 01aa+STS _glcd_state + ( 6 ) , R30
                 	__PUTB1MN _glcd_state,6
                +
000721 93e0 01ab+STS _glcd_state + ( 7 ) , R30
                 	__PUTB1MN _glcd_state,7
000723 81e9      	LDD  R30,Y+1
000724 81fa      	LDD  R31,Y+1+1
000725 9730      	SBIW R30,0
000726 f059      	BREQ _0x2000017
000727 d544      	RCALL SUBOPT_0x26
000728 d6ca      	RCALL __GETW1P
000729 d545      	RCALL SUBOPT_0x27
00072a d541      	RCALL SUBOPT_0x26
00072b 9612      	ADIW R26,2
00072c d6c6      	RCALL __GETW1P
00072d d546      	RCALL SUBOPT_0x28
00072e d53d      	RCALL SUBOPT_0x26
00072f 9614      	ADIW R26,4
000730 d6c2      	RCALL __GETW1P
000731 c005      	RJMP _0x20000A6
                 _0x2000017:
000732 d546      	RCALL SUBOPT_0x29
000733 d53b      	RCALL SUBOPT_0x27
000734 d544      	RCALL SUBOPT_0x29
000735 d53e      	RCALL SUBOPT_0x28
000736 d542      	RCALL SUBOPT_0x29
                 _0x20000A6:
                +
000737 93e0 01bf+STS _glcd_state + ( 27 ) , R30
000739 93f0 01c0+STS _glcd_state + ( 27 ) + 1 , R31
                 	__PUTW1MN _glcd_state,27
00073b e0e1      	LDI  R30,LOW(1)
                +
00073c 93e0 01ac+STS _glcd_state + ( 8 ) , R30
                 	__PUTB1MN _glcd_state,8
00073e efef      	LDI  R30,LOW(255)
                +
00073f 93e0 01ad+STS _glcd_state + ( 9 ) , R30
                 	__PUTB1MN _glcd_state,9
000741 e0e1      	LDI  R30,LOW(1)
                +
000742 93e0 01b4+STS _glcd_state + ( 16 ) , R30
                 	__PUTB1MN _glcd_state,16
                +
000744 ebe5     +LDI R30 , LOW ( _glcd_state + ( 17 ) )
000745 e0f1     +LDI R31 , HIGH ( _glcd_state + ( 17 ) )
                 	__POINTW1MN _glcd_state,17
000746 d480      	RCALL SUBOPT_0x2
000747 efef      	LDI  R30,LOW(255)
000748 93ea      	ST   -Y,R30
000749 e0a8      	LDI  R26,LOW(8)
00074a e0b0      	LDI  R27,0
00074b d3d6      	RCALL _memset
00074c e0e1      	LDI  R30,LOW(1)
00074d 8118      	LDD  R17,Y+0
00074e c42a      	RJMP _0x2220002
                 ; .FEND
                 _st7920_rdbyte_G100:
                 ; .FSTART _st7920_rdbyte_G100
00074f 93aa      	ST   -Y,R26
000750 81e9      	LDD  R30,Y+1
000751 93ea      	ST   -Y,R30
000752 81a9      	LDD  R26,Y+1
000753 df39      	RCALL _st7920_setxy_G100
000754 df2f      	RCALL _st7920_rddata
000755 81e9      	LDD  R30,Y+1
000756 70ef      	ANDI R30,LOW(0xF)
000757 30e8      	CPI  R30,LOW(0x8)
000758 f018      	BRLO _0x2000019
000759 df2a      	RCALL _st7920_rddata
00075a 93e0 0216 	STS  _st7920_bits8_15_G100,R30
                 _0x2000019:
00075c df27      	RCALL _st7920_rddata
00075d c3d9      	RJMP _0x2220003
                 ; .FEND
                 _st7920_wrbyte_G100:
                 ; .FSTART _st7920_wrbyte_G100
00075e d51d      	RCALL SUBOPT_0x2A
00075f df2d      	RCALL _st7920_setxy_G100
000760 81ea      	LDD  R30,Y+2
000761 70ef      	ANDI R30,LOW(0xF)
000762 30e8      	CPI  R30,LOW(0x8)
000763 f018      	BRLO _0x200001A
000764 91a0 0216 	LDS  R26,_st7920_bits8_15_G100
000766 df17      	RCALL _st7920_wrdata
                 _0x200001A:
000767 81a8      	LD   R26,Y
000768 df15      	RCALL _st7920_wrdata
000769 c40f      	RJMP _0x2220002
                 ; .FEND
                 _st7920_wrmasked_G100:
                 ; .FSTART _st7920_wrmasked_G100
00076a 93aa      	ST   -Y,R26
00076b 931a      	ST   -Y,R17
00076c d4f6      	RCALL SUBOPT_0x23
00076d 81ed      	LDD  R30,Y+5
00076e 93ea      	ST   -Y,R30
00076f 81ad      	LDD  R26,Y+5
000770 d510      	RCALL SUBOPT_0x2B
000771 2f1e      	MOV  R17,R30
000772 81e9      	LDD  R30,Y+1
000773 30e7      	CPI  R30,LOW(0x7)
000774 f011      	BREQ _0x200002A
000775 30e8      	CPI  R30,LOW(0x8)
000776 f429      	BRNE _0x200002B
                 _0x200002A:
000777 d49d      	RCALL SUBOPT_0xF
000778 81aa      	LDD  R26,Y+2
000779 d3bf      	RCALL _glcd_mappixcolor1bit
00077a 83eb      	STD  Y+3,R30
00077b c00e      	RJMP _0x200002C
                 _0x200002B:
00077c 30e3      	CPI  R30,LOW(0x3)
00077d f421      	BRNE _0x200002E
00077e 81eb      	LDD  R30,Y+3
00077f 95e0      	COM  R30
000780 83eb      	STD  Y+3,R30
000781 c002      	RJMP _0x200002F
                 _0x200002E:
000782 30e0      	CPI  R30,0
000783 f409      	BRNE _0x2000030
                 _0x200002F:
000784 c002      	RJMP _0x2000031
                 _0x2000030:
000785 30e9      	CPI  R30,LOW(0x9)
000786 f409      	BRNE _0x2000032
                 _0x2000031:
000787 c002      	RJMP _0x2000033
                 _0x2000032:
000788 30ea      	CPI  R30,LOW(0xA)
000789 f421      	BRNE _0x2000034
                 _0x2000033:
                 _0x200002C:
00078a 81ea      	LDD  R30,Y+2
00078b 95e0      	COM  R30
00078c 231e      	AND  R17,R30
00078d c002      	RJMP _0x2000035
                 _0x2000034:
00078e 30e2      	CPI  R30,LOW(0x2)
00078f f429      	BRNE _0x2000036
                 _0x2000035:
000790 81ea      	LDD  R30,Y+2
000791 81ab      	LDD  R26,Y+3
000792 23ea      	AND  R30,R26
000793 2b1e      	OR   R17,R30
000794 c00e      	RJMP _0x2000028
                 _0x2000036:
000795 30e1      	CPI  R30,LOW(0x1)
000796 f429      	BRNE _0x2000037
000797 81ea      	LDD  R30,Y+2
000798 81ab      	LDD  R26,Y+3
000799 23ea      	AND  R30,R26
00079a 271e      	EOR  R17,R30
00079b c007      	RJMP _0x2000028
                 _0x2000037:
00079c 30e4      	CPI  R30,LOW(0x4)
00079d f429      	BRNE _0x2000028
00079e 81ea      	LDD  R30,Y+2
00079f 95e0      	COM  R30
0007a0 81ab      	LDD  R26,Y+3
0007a1 2bea      	OR   R30,R26
0007a2 231e      	AND  R17,R30
                 _0x2000028:
0007a3 81ed      	LDD  R30,Y+5
0007a4 93ea      	ST   -Y,R30
0007a5 81ed      	LDD  R30,Y+5
0007a6 93ea      	ST   -Y,R30
0007a7 2fa1      	MOV  R26,R17
0007a8 d3ed      	RCALL _glcd_revbits
0007a9 2fae      	MOV  R26,R30
0007aa dfb3      	RCALL _st7920_wrbyte_G100
0007ab 8118      	LDD  R17,Y+0
0007ac c350      	RJMP _0x2220006
                 ; .FEND
                 _glcd_block:
                 ; .FSTART _glcd_block
0007ad 93aa      	ST   -Y,R26
0007ae 9727      	SBIW R28,7
0007af d668      	RCALL __SAVELOCR6
0007b0 89ac      	LDD  R26,Y+20
0007b1 38a0      	CPI  R26,LOW(0x80)
0007b2 f448      	BRSH _0x200003A
0007b3 89ab      	LDD  R26,Y+19
0007b4 34a0      	CPI  R26,LOW(0x40)
0007b5 f430      	BRSH _0x200003A
0007b6 89aa      	LDD  R26,Y+18
0007b7 30a0      	CPI  R26,LOW(0x0)
0007b8 f019      	BREQ _0x200003A
0007b9 89a9      	LDD  R26,Y+17
0007ba 30a0      	CPI  R26,LOW(0x0)
0007bb f409      	BRNE _0x2000039
                 _0x200003A:
0007bc c16b      	RJMP _0x2220009
                 _0x2000039:
0007bd 89ea      	LDD  R30,Y+18
0007be d4c5      	RCALL SUBOPT_0x2C
0007bf 2f2e      	MOV  R18,R30
                +
0007c0 8728     +STD Y + 8 , R18
                 	__PUTBSR 18,8
0007c1 89ea      	LDD  R30,Y+18
0007c2 70e7      	ANDI R30,LOW(0x7)
0007c3 87eb      	STD  Y+11,R30
0007c4 30e0      	CPI  R30,0
0007c5 f019      	BREQ _0x200003C
0007c6 85e8      	LDD  R30,Y+8
0007c7 5fef      	SUBI R30,-LOW(1)
0007c8 87e8      	STD  Y+8,R30
                 _0x200003C:
0007c9 890a      	LDD  R16,Y+18
0007ca 89ac      	LDD  R26,Y+20
0007cb 27bb      	CLR  R27
0007cc 89ea      	LDD  R30,Y+18
0007cd d4ba      	RCALL SUBOPT_0x2D
0007ce 38a1      	CPI  R26,LOW(0x81)
0007cf e0e0      	LDI  R30,HIGH(0x81)
0007d0 07be      	CPC  R27,R30
0007d1 f020      	BRLO _0x200003D
0007d2 89ac      	LDD  R26,Y+20
0007d3 e8e0      	LDI  R30,LOW(128)
0007d4 1bea      	SUB  R30,R26
0007d5 8bea      	STD  Y+18,R30
                 _0x200003D:
0007d6 89e9      	LDD  R30,Y+17
0007d7 87ea      	STD  Y+10,R30
0007d8 89ab      	LDD  R26,Y+19
0007d9 27bb      	CLR  R27
0007da 89e9      	LDD  R30,Y+17
0007db d4ac      	RCALL SUBOPT_0x2D
0007dc 34a1      	CPI  R26,LOW(0x41)
0007dd e0e0      	LDI  R30,HIGH(0x41)
0007de 07be      	CPC  R27,R30
0007df f020      	BRLO _0x200003E
0007e0 89ab      	LDD  R26,Y+19
0007e1 e4e0      	LDI  R30,LOW(64)
0007e2 1bea      	SUB  R30,R26
0007e3 8be9      	STD  Y+17,R30
                 _0x200003E:
0007e4 85ed      	LDD  R30,Y+13
0007e5 30e6      	CPI  R30,LOW(0x6)
0007e6 f009      	BREQ PC+2
0007e7 c048      	RJMP _0x2000042
0007e8 89e8      	LDD  R30,Y+16
0007e9 30e1      	CPI  R30,LOW(0x1)
0007ea f409      	BRNE _0x2000046
0007eb c13c      	RJMP _0x2220009
                 _0x2000046:
0007ec 30e3      	CPI  R30,LOW(0x3)
0007ed f439      	BRNE _0x2000049
                +
0007ee 91e0 01bf+LDS R30 , _glcd_state + ( 27 )
0007f0 91f0 01c0+LDS R31 , _glcd_state + ( 27 ) + 1
                 	__GETW1MN _glcd_state,27
0007f2 9730      	SBIW R30,0
0007f3 f409      	BRNE _0x2000048
0007f4 c133      	RJMP _0x2220009
                 _0x2000048:
                 _0x2000049:
0007f5 85eb      	LDD  R30,Y+11
0007f6 30e0      	CPI  R30,0
0007f7 f419      	BRNE _0x200004B
0007f8 89aa      	LDD  R26,Y+18
0007f9 170a      	CP   R16,R26
0007fa f0b1      	BREQ _0x200004A
                 _0x200004B:
0007fb 2fe2      	MOV  R30,R18
0007fc 85ae      	LDD  R26,Y+14
0007fd 85bf      	LDD  R27,Y+14+1
0007fe d48d      	RCALL SUBOPT_0x2E
0007ff 8919      	LDD  R17,Y+17
                 _0x200004D:
000800 3010      	CPI  R17,0
000801 f079      	BREQ _0x200004F
000802 2f32      	MOV  R19,R18
                 _0x2000050:
000803 933f      	PUSH R19
000804 5f3f      	SUBI R19,-1
000805 85e8      	LDD  R30,Y+8
000806 91af      	POP  R26
000807 17ae      	CP   R26,R30
000808 f410      	BRSH _0x2000052
000809 d488      	RCALL SUBOPT_0x2F
00080a cff8      	RJMP _0x2000050
                 _0x2000052:
00080b 2fe2      	MOV  R30,R18
00080c 81ae      	LDD  R26,Y+6
00080d 81bf      	LDD  R27,Y+6+1
00080e d47d      	RCALL SUBOPT_0x2E
00080f 5011      	SUBI R17,LOW(1)
000810 cfef      	RJMP _0x200004D
                 _0x200004F:
                 _0x200004A:
000811 8929      	LDD  R18,Y+17
000812 85ea      	LDD  R30,Y+10
000813 17e2      	CP   R30,R18
000814 f0d1      	BREQ _0x2000053
000815 2fa2      	MOV  R26,R18
000816 27bb      	CLR  R27
000817 85e8      	LDD  R30,Y+8
000818 d484      	RCALL SUBOPT_0x30
000819 85ae      	LDD  R26,Y+14
00081a 85bf      	LDD  R27,Y+14+1
00081b 0fea      	ADD  R30,R26
00081c 1ffb      	ADC  R31,R27
00081d 83ee      	STD  Y+6,R30
00081e 83ff      	STD  Y+6+1,R31
                 _0x2000054:
00081f 932f      	PUSH R18
000820 5f2f      	SUBI R18,-1
000821 85ea      	LDD  R30,Y+10
000822 91af      	POP  R26
000823 17ae      	CP   R26,R30
000824 f450      	BRSH _0x2000056
000825 e030      	LDI  R19,LOW(0)
                 _0x2000057:
000826 933f      	PUSH R19
000827 5f3f      	SUBI R19,-1
000828 85e8      	LDD  R30,Y+8
000829 91af      	POP  R26
00082a 17ae      	CP   R26,R30
00082b f410      	BRSH _0x2000059
00082c d465      	RCALL SUBOPT_0x2F
00082d cff8      	RJMP _0x2000057
                 _0x2000059:
00082e cff0      	RJMP _0x2000054
                 _0x2000056:
                 _0x2000053:
00082f c00c      	RJMP _0x2000041
                 _0x2000042:
000830 30e9      	CPI  R30,LOW(0x9)
000831 f411      	BRNE _0x200005A
000832 e0e0      	LDI  R30,LOW(0)
000833 c003      	RJMP _0x20000A7
                 _0x200005A:
000834 30ea      	CPI  R30,LOW(0xA)
000835 f431      	BRNE _0x2000041
000836 efef      	LDI  R30,LOW(255)
                 _0x20000A7:
000837 87ea      	STD  Y+10,R30
000838 93ea      	ST   -Y,R30
000839 85ae      	LDD  R26,Y+14
00083a d2fe      	RCALL _glcd_mappixcolor1bit
00083b 87ea      	STD  Y+10,R30
                 _0x2000041:
00083c 89ec      	LDD  R30,Y+20
00083d 70e7      	ANDI R30,LOW(0x7)
00083e 2f3e      	MOV  R19,R30
00083f e0e8      	LDI  R30,LOW(8)
000840 1be3      	SUB  R30,R19
000841 2f2e      	MOV  R18,R30
000842 2f52      	MOV  R21,R18
000843 89aa      	LDD  R26,Y+18
000844 172a      	CP   R18,R26
000845 f010      	BRLO _0x200005E
000846 895a      	LDD  R21,Y+18
000847 c00c      	RJMP _0x200005F
                 _0x200005E:
000848 3030      	CPI  R19,0
000849 f051      	BREQ _0x2000060
00084a 2f43      	MOV  R20,R19
00084b 89aa      	LDD  R26,Y+18
00084c 30a9      	CPI  R26,LOW(0x9)
00084d f418      	BRSH _0x2000061
00084e 89ea      	LDD  R30,Y+18
00084f 1be2      	SUB  R30,R18
000850 2f4e      	MOV  R20,R30
                 _0x2000061:
000851 2fe4      	MOV  R30,R20
000852 d44d      	RCALL SUBOPT_0x31
000853 9144      	LPM  R20,Z
                 _0x2000060:
                 _0x200005F:
000854 933a      	ST   -Y,R19
000855 2fa5      	MOV  R26,R21
000856 d2da      	RCALL _glcd_getmask
000857 2f5e      	MOV  R21,R30
000858 85ab      	LDD  R26,Y+11
000859 172a      	CP   R18,R26
00085a f418      	BRSH _0x2000062
00085b 85eb      	LDD  R30,Y+11
00085c 1be2      	SUB  R30,R18
00085d 87eb      	STD  Y+11,R30
                 _0x2000062:
00085e 85eb      	LDD  R30,Y+11
00085f d440      	RCALL SUBOPT_0x31
000860 9004      	LPM  R0,Z
000861 860c      	STD  Y+12,R0
000862 d400      	RCALL SUBOPT_0x23
                 _0x2000063:
000863 89e9      	LDD  R30,Y+17
000864 50e1      	SUBI R30,LOW(1)
000865 8be9      	STD  Y+17,R30
000866 5fef      	SUBI R30,-LOW(1)
000867 f409      	BRNE PC+2
000868 c0bf      	RJMP _0x2000065
000869 e010      	LDI  R17,LOW(0)
00086a 890c      	LDD  R16,Y+20
00086b 85ee      	LDD  R30,Y+14
00086c 85ff      	LDD  R31,Y+14+1
00086d 83ee      	STD  Y+6,R30
00086e 83ff      	STD  Y+6+1,R31
00086f 3030      	CPI  R19,0
000870 f409      	BRNE PC+2
000871 c074      	RJMP _0x2000066
                +
000872 874b     +STD Y + 11 , R20
                 	__PUTBSR 20,11
000873 85ad      	LDD  R26,Y+13
000874 30a6      	CPI  R26,LOW(0x6)
000875 f009      	BREQ PC+2
000876 c042      	RJMP _0x2000067
                 _0x2000068:
000877 89ea      	LDD  R30,Y+18
000878 171e      	CP   R17,R30
000879 f5f0      	BRSH _0x200006A
00087a 930a      	ST   -Y,R16
00087b 89ac      	LDD  R26,Y+20
00087c d404      	RCALL SUBOPT_0x2B
00087d 23e5      	AND  R30,R21
00087e 2fae      	MOV  R26,R30
00087f 2fe3      	MOV  R30,R19
000880 d509      	RCALL __LSRB12
000881 87e9      	STD  Y+9,R30
000882 d421      	RCALL SUBOPT_0x32
000883 d423      	RCALL SUBOPT_0x33
000884 2e1e      	MOV  R1,R30
000885 2fe3      	MOV  R30,R19
000886 2fa5      	MOV  R26,R21
000887 d502      	RCALL __LSRB12
000888 95e0      	COM  R30
000889 21e1      	AND  R30,R1
00088a 85a9      	LDD  R26,Y+9
00088b 2bea      	OR   R30,R26
00088c 87e9      	STD  Y+9,R30
00088d 89aa      	LDD  R26,Y+18
00088e 172a      	CP   R18,R26
00088f f420      	BRSH _0x200006C
000890 2fe0      	MOV  R30,R16
000891 d3f2      	RCALL SUBOPT_0x2C
000892 30ef      	CPI  R30,LOW(0xF)
000893 f030      	BRLO _0x200006B
                 _0x200006C:
000894 d40f      	RCALL SUBOPT_0x32
000895 d416      	RCALL SUBOPT_0x34
000896 d330      	RCALL SUBOPT_0x2
000897 85ac      	LDD  R26,Y+12
000898 d2e2      	RCALL _glcd_writemem
000899 c01e      	RJMP _0x200006A
                 _0x200006B:
00089a d414      	RCALL SUBOPT_0x35
00089b f410      	BRSH _0x200006E
00089c 85ec      	LDD  R30,Y+12
00089d 87eb      	STD  Y+11,R30
                 _0x200006E:
00089e 5f08      	SUBI R16,-LOW(8)
00089f 930a      	ST   -Y,R16
0008a0 89ac      	LDD  R26,Y+20
0008a1 d3df      	RCALL SUBOPT_0x2B
0008a2 85ab      	LDD  R26,Y+11
0008a3 23ea      	AND  R30,R26
0008a4 2fae      	MOV  R26,R30
0008a5 2fe2      	MOV  R30,R18
0008a6 d4db      	RCALL __LSLB12
0008a7 87ea      	STD  Y+10,R30
0008a8 2fe2      	MOV  R30,R18
0008a9 85ab      	LDD  R26,Y+11
0008aa d4d7      	RCALL __LSLB12
0008ab 95e0      	COM  R30
0008ac 85a9      	LDD  R26,Y+9
0008ad 23ea      	AND  R30,R26
0008ae 85aa      	LDD  R26,Y+10
0008af 2bea      	OR   R30,R26
0008b0 87ea      	STD  Y+10,R30
0008b1 d3f2      	RCALL SUBOPT_0x32
0008b2 d400      	RCALL SUBOPT_0x36
0008b3 d313      	RCALL SUBOPT_0x2
0008b4 85ad      	LDD  R26,Y+13
0008b5 d2c5      	RCALL _glcd_writemem
0008b6 5f18      	SUBI R17,-LOW(8)
0008b7 cfbf      	RJMP _0x2000068
                 _0x200006A:
0008b8 c02c      	RJMP _0x200006F
                 _0x2000067:
                 _0x2000070:
0008b9 89ea      	LDD  R30,Y+18
0008ba 171e      	CP   R17,R30
0008bb f548      	BRSH _0x2000072
0008bc 85ed      	LDD  R30,Y+13
0008bd 30e9      	CPI  R30,LOW(0x9)
0008be f011      	BREQ _0x2000077
0008bf 30ea      	CPI  R30,LOW(0xA)
0008c0 f409      	BRNE _0x2000079
                 _0x2000077:
0008c1 c008      	RJMP _0x2000075
                 _0x2000079:
0008c2 d3e1      	RCALL SUBOPT_0x32
0008c3 d3ef      	RCALL SUBOPT_0x36
0008c4 2766      	CLR  R22
0008c5 2777      	CLR  R23
0008c6 01df      	MOVW R26,R30
0008c7 01cb      	MOVW R24,R22
0008c8 d298      	RCALL _glcd_readmem
0008c9 87ea      	STD  Y+10,R30
                 _0x2000075:
0008ca d3ee      	RCALL SUBOPT_0x37
0008cb 2fe3      	MOV  R30,R19
0008cc 85ac      	LDD  R26,Y+12
0008cd d4b4      	RCALL __LSLB12
0008ce 93ea      	ST   -Y,R30
0008cf 935a      	ST   -Y,R21
0008d0 89a9      	LDD  R26,Y+17
0008d1 de98      	RCALL _st7920_wrmasked_G100
0008d2 89aa      	LDD  R26,Y+18
0008d3 172a      	CP   R18,R26
0008d4 f480      	BRSH _0x2000072
0008d5 2fe0      	MOV  R30,R16
0008d6 d3ad      	RCALL SUBOPT_0x2C
0008d7 30ef      	CPI  R30,LOW(0xF)
0008d8 f460      	BRSH _0x2000072
0008d9 d3d5      	RCALL SUBOPT_0x35
0008da f410      	BRSH _0x200007C
0008db 85ec      	LDD  R30,Y+12
0008dc 87eb      	STD  Y+11,R30
                 _0x200007C:
0008dd 5f08      	SUBI R16,-LOW(8)
0008de d3da      	RCALL SUBOPT_0x37
0008df 2fe2      	MOV  R30,R18
0008e0 85ac      	LDD  R26,Y+12
0008e1 d4a8      	RCALL __LSRB12
0008e2 d3da      	RCALL SUBOPT_0x38
0008e3 5f18      	SUBI R17,-LOW(8)
0008e4 cfd4      	RJMP _0x2000070
                 _0x2000072:
                 _0x200006F:
0008e5 c036      	RJMP _0x200007D
                 _0x2000066:
                +
0008e6 875b     +STD Y + 11 , R21
                 	__PUTBSR 21,11
                 _0x200007E:
0008e7 89ea      	LDD  R30,Y+18
0008e8 171e      	CP   R17,R30
0008e9 f590      	BRSH _0x2000080
0008ea d3c4      	RCALL SUBOPT_0x35
0008eb f410      	BRSH _0x2000081
0008ec 85ec      	LDD  R30,Y+12
0008ed 87eb      	STD  Y+11,R30
                 _0x2000081:
0008ee 85ed      	LDD  R30,Y+13
0008ef 30e9      	CPI  R30,LOW(0x9)
0008f0 f011      	BREQ _0x2000086
0008f1 30ea      	CPI  R30,LOW(0xA)
0008f2 f409      	BRNE _0x2000088
                 _0x2000086:
0008f3 c009      	RJMP _0x2000084
                 _0x2000088:
0008f4 85ad      	LDD  R26,Y+13
0008f5 30a6      	CPI  R26,LOW(0x6)
0008f6 f419      	BRNE _0x200008A
0008f7 85ab      	LDD  R26,Y+11
0008f8 3faf      	CPI  R26,LOW(0xFF)
0008f9 f019      	BREQ _0x2000089
                 _0x200008A:
0008fa d3a9      	RCALL SUBOPT_0x32
0008fb d3ab      	RCALL SUBOPT_0x33
0008fc 87ea      	STD  Y+10,R30
                 _0x2000089:
                 _0x2000084:
0008fd 85ad      	LDD  R26,Y+13
0008fe 30a6      	CPI  R26,LOW(0x6)
0008ff f489      	BRNE _0x200008C
000900 d3a3      	RCALL SUBOPT_0x32
000901 d3aa      	RCALL SUBOPT_0x34
000902 d2c4      	RCALL SUBOPT_0x2
000903 930a      	ST   -Y,R16
000904 89af      	LDD  R26,Y+23
000905 d37b      	RCALL SUBOPT_0x2B
000906 85ae      	LDD  R26,Y+14
000907 23ea      	AND  R30,R26
000908 2e0e      	MOV  R0,R30
000909 85ee      	LDD  R30,Y+14
00090a 95e0      	COM  R30
00090b 85ad      	LDD  R26,Y+13
00090c 23ea      	AND  R30,R26
00090d 29e0      	OR   R30,R0
00090e 2fae      	MOV  R26,R30
00090f d26b      	RCALL _glcd_writemem
000910 c003      	RJMP _0x200008D
                 _0x200008C:
000911 d3a7      	RCALL SUBOPT_0x37
000912 85ec      	LDD  R30,Y+12
000913 d3a9      	RCALL SUBOPT_0x38
                 _0x200008D:
000914 81ee      	LDD  R30,Y+6
000915 81ff      	LDD  R31,Y+6+1
000916 9631      	ADIW R30,1
000917 83ee      	STD  Y+6,R30
000918 83ff      	STD  Y+6+1,R31
000919 5f08      	SUBI R16,-LOW(8)
00091a 5f18      	SUBI R17,-LOW(8)
00091b cfcb      	RJMP _0x200007E
                 _0x2000080:
                 _0x200007D:
00091c 89eb      	LDD  R30,Y+19
00091d 5fef      	SUBI R30,-LOW(1)
00091e 8beb      	STD  Y+19,R30
00091f 85e8      	LDD  R30,Y+8
000920 85ae      	LDD  R26,Y+14
000921 85bf      	LDD  R27,Y+14+1
000922 e0f0      	LDI  R31,0
000923 0fea      	ADD  R30,R26
000924 1ffb      	ADC  R31,R27
000925 87ee      	STD  Y+14,R30
000926 87ff      	STD  Y+14+1,R31
000927 cf3b      	RJMP _0x2000063
                 _0x2000065:
                 _0x2220009:
000928 d4f6      	RCALL __LOADLOCR6
000929 9665      	ADIW R28,21
00092a 9508      	RET
                 ; .FEND
                 _glcd_putcharcg:
                 ; .FSTART _glcd_putcharcg
00092b 93aa      	ST   -Y,R26
00092c d4ef      	RCALL __SAVELOCR2
00092d 81ac      	LDD  R26,Y+4
00092e 31a0      	CPI  R26,LOW(0x10)
00092f f010      	BRLO _0x2000090
000930 e0ef      	LDI  R30,LOW(15)
000931 83ec      	STD  Y+4,R30
                 _0x2000090:
000932 81ab      	LDD  R26,Y+3
000933 30a4      	CPI  R26,LOW(0x4)
000934 f010      	BRLO _0x2000091
000935 e0e3      	LDI  R30,LOW(3)
000936 83eb      	STD  Y+3,R30
                 _0x2000091:
000937 81eb      	LDD  R30,Y+3
000938 e0f0      	LDI  R31,0
000939 57e8      	SUBI R30,LOW(-_st7920_base_y_G100*2)
00093a 4ffc      	SBCI R31,HIGH(-_st7920_base_y_G100*2)
00093b 91a4      	LPM  R26,Z
00093c 81ec      	LDD  R30,Y+4
00093d 95e6      	LSR  R30
00093e 2bea      	OR   R30,R26
00093f 2f1e      	MOV  R17,R30
000940 d31e      	RCALL SUBOPT_0x22
000941 2fa1      	MOV  R26,R17
000942 dd45      	RCALL _st7920_wrcmd
000943 dd40      	RCALL _st7920_rddata
000944 81ec      	LDD  R30,Y+4
000945 70e1      	ANDI R30,LOW(0x1)
000946 f011      	BREQ _0x2000092
000947 dd3c      	RCALL _st7920_rddata
000948 2f0e      	MOV  R16,R30
                 _0x2000092:
000949 2fa1      	MOV  R26,R17
00094a dd3d      	RCALL _st7920_wrcmd
00094b 81ec      	LDD  R30,Y+4
00094c 70e1      	ANDI R30,LOW(0x1)
00094d f011      	BREQ _0x2000093
00094e 2fa0      	MOV  R26,R16
00094f dd2e      	RCALL _st7920_wrdata
                 _0x2000093:
000950 81aa      	LDD  R26,Y+2
000951 dd2c      	RCALL _st7920_wrdata
000952 d4d0      	RCALL __LOADLOCR2
000953 c1db      	RJMP _0x2220004
                 ; .FEND
                 
                 	.CSEG
                 _glcd_clipx:
                 ; .FSTART _glcd_clipx
000954 d36d      	RCALL SUBOPT_0x39
000955 f014      	BRLT _0x2020003
000956 d322      	RCALL SUBOPT_0x29
000957 c1df      	RJMP _0x2220003
                 _0x2020003:
000958 d36e      	RCALL SUBOPT_0x3A
000959 38a0      	CPI  R26,LOW(0x80)
00095a e0e0      	LDI  R30,HIGH(0x80)
00095b 07be      	CPC  R27,R30
00095c f01c      	BRLT _0x2020004
00095d e7ef      	LDI  R30,LOW(127)
00095e e0f0      	LDI  R31,HIGH(127)
00095f c1d7      	RJMP _0x2220003
                 _0x2020004:
000960 81e8      	LD   R30,Y
000961 81f9      	LDD  R31,Y+1
000962 c1d4      	RJMP _0x2220003
                 ; .FEND
                 _glcd_clipy:
                 ; .FSTART _glcd_clipy
000963 d35e      	RCALL SUBOPT_0x39
000964 f014      	BRLT _0x2020005
000965 d313      	RCALL SUBOPT_0x29
000966 c1d0      	RJMP _0x2220003
                 _0x2020005:
000967 d35f      	RCALL SUBOPT_0x3A
000968 34a0      	CPI  R26,LOW(0x40)
000969 e0e0      	LDI  R30,HIGH(0x40)
00096a 07be      	CPC  R27,R30
00096b f01c      	BRLT _0x2020006
00096c e3ef      	LDI  R30,LOW(63)
00096d e0f0      	LDI  R31,HIGH(63)
00096e c1c8      	RJMP _0x2220003
                 _0x2020006:
00096f 81e8      	LD   R30,Y
000970 81f9      	LDD  R31,Y+1
000971 c1c5      	RJMP _0x2220003
                 ; .FEND
                 _glcd_imagesize:
                 ; .FSTART _glcd_imagesize
000972 93aa      	ST   -Y,R26
000973 931a      	ST   -Y,R17
000974 81aa      	LDD  R26,Y+2
000975 38a0      	CPI  R26,LOW(0x80)
000976 f418      	BRSH _0x2020008
000977 81a9      	LDD  R26,Y+1
000978 34a0      	CPI  R26,LOW(0x40)
000979 f018      	BRLO _0x2020007
                 _0x2020008:
00097a d34f      	RCALL SUBOPT_0x3B
00097b 8118      	LDD  R17,Y+0
00097c c1fc      	RJMP _0x2220002
                 _0x2020007:
00097d 81ea      	LDD  R30,Y+2
00097e 70e7      	ANDI R30,LOW(0x7)
00097f 2f1e      	MOV  R17,R30
000980 81ea      	LDD  R30,Y+2
000981 d302      	RCALL SUBOPT_0x2C
000982 83ea      	STD  Y+2,R30
000983 3010      	CPI  R17,0
000984 f011      	BREQ _0x202000A
000985 5fef      	SUBI R30,-LOW(1)
000986 83ea      	STD  Y+2,R30
                 _0x202000A:
000987 81aa      	LDD  R26,Y+2
000988 27bb      	CLR  R27
000989 2788      	CLR  R24
00098a 2799      	CLR  R25
00098b 81e9      	LDD  R30,Y+1
00098c 27ff      	CLR  R31
00098d 2766      	CLR  R22
00098e 2777      	CLR  R23
00098f d40f      	RCALL __MULD12U
                +
000990 5fec     +SUBI R30 , LOW ( - 4 )
000991 4fff     +SBCI R31 , HIGH ( - 4 )
000992 4f6f     +SBCI R22 , BYTE3 ( - 4 )
000993 4f7f     +SBCI R23 , BYTE4 ( - 4 )
                 	__ADDD1N 4
000994 8118      	LDD  R17,Y+0
000995 c1e3      	RJMP _0x2220002
                 ; .FEND
                 _glcd_getcharw_G101:
                 ; .FSTART _glcd_getcharw_G101
000996 d2d0      	RCALL SUBOPT_0x24
000997 9723      	SBIW R28,3
000998 d336      	RCALL SUBOPT_0x3C
000999 018f      	MOVW R16,R30
00099a 2e00      	MOV  R0,R16
00099b 2a01      	OR   R0,R17
00099c f411      	BRNE _0x202000B
00099d d2db      	RCALL SUBOPT_0x29
00099e c059      	RJMP _0x2220008
                 _0x202000B:
00099f d335      	RCALL SUBOPT_0x3D
0009a0 820f      	STD  Y+7,R0
0009a1 d333      	RCALL SUBOPT_0x3D
0009a2 820e      	STD  Y+6,R0
0009a3 d331      	RCALL SUBOPT_0x3D
0009a4 8608      	STD  Y+8,R0
0009a5 85eb      	LDD  R30,Y+11
0009a6 85a8      	LDD  R26,Y+8
0009a7 17ea      	CP   R30,R26
0009a8 f410      	BRSH _0x202000C
0009a9 d2cf      	RCALL SUBOPT_0x29
0009aa c04d      	RJMP _0x2220008
                 _0x202000C:
0009ab 01f8      	MOVW R30,R16
                +
0009ac 5f0f     +SUBI R16 , LOW ( - 1 )
0009ad 4f1f     +SBCI R17 , HIGH ( - 1 )
                 	__ADDWRN 16,17,1
0009ae 9154      	LPM  R21,Z
0009af 85a8      	LDD  R26,Y+8
0009b0 27bb      	CLR  R27
0009b1 27ee      	CLR  R30
0009b2 0fa5      	ADD  R26,R21
0009b3 1fbe      	ADC  R27,R30
0009b4 85eb      	LDD  R30,Y+11
0009b5 e0f0      	LDI  R31,0
0009b6 17ea      	CP   R30,R26
0009b7 07fb      	CPC  R31,R27
0009b8 f010      	BRLO _0x202000D
0009b9 d2bf      	RCALL SUBOPT_0x29
0009ba c03d      	RJMP _0x2220008
                 _0x202000D:
0009bb 81ef      	LDD  R30,Y+7
0009bc 30e0      	CPI  R30,0
0009bd f0b1      	BREQ _0x202000E
0009be 85a9      	LDD  R26,Y+9
0009bf 85ba      	LDD  R27,Y+9+1
0009c0 93ec      	ST   X,R30
0009c1 d2c2      	RCALL SUBOPT_0x2C
0009c2 2f4e      	MOV  R20,R30
0009c3 81ef      	LDD  R30,Y+7
0009c4 70e7      	ANDI R30,LOW(0x7)
0009c5 f009      	BREQ _0x202000F
0009c6 5f4f      	SUBI R20,-LOW(1)
                 _0x202000F:
0009c7 85a8      	LDD  R26,Y+8
0009c8 85eb      	LDD  R30,Y+11
0009c9 1bea      	SUB  R30,R26
0009ca e0f0      	LDI  R31,0
0009cb 01df      	MOVW R26,R30
0009cc 81ee      	LDD  R30,Y+6
0009cd d2cf      	RCALL SUBOPT_0x30
0009ce 01df      	MOVW R26,R30
0009cf 2fe4      	MOV  R30,R20
0009d0 d2cc      	RCALL SUBOPT_0x30
0009d1 0fe0      	ADD  R30,R16
0009d2 1ff1      	ADC  R31,R17
0009d3 c024      	RJMP _0x2220008
                 _0x202000E:
0009d4 0198      	MOVW R18,R16
0009d5 2fe5      	MOV  R30,R21
0009d6 e0f0      	LDI  R31,0
                +
0009d7 0f0e     +ADD R16 , R30
0009d8 1f1f     +ADC R17 , R31
                 	__ADDWRR 16,17,30,31
                 _0x2020010:
0009d9 85a8      	LDD  R26,Y+8
0009da 5faf      	SUBI R26,-LOW(1)
0009db 87a8      	STD  Y+8,R26
0009dc 50a1      	SUBI R26,LOW(1)
0009dd 85eb      	LDD  R30,Y+11
0009de 17ae      	CP   R26,R30
0009df f490      	BRSH _0x2020012
0009e0 01f9      	MOVW R30,R18
0009e1 91e4      	LPM  R30,Z
0009e2 d2a1      	RCALL SUBOPT_0x2C
0009e3 2f4e      	MOV  R20,R30
0009e4 01f9      	MOVW R30,R18
                +
0009e5 5f2f     +SUBI R18 , LOW ( - 1 )
0009e6 4f3f     +SBCI R19 , HIGH ( - 1 )
                 	__ADDWRN 18,19,1
0009e7 91e4      	LPM  R30,Z
0009e8 70e7      	ANDI R30,LOW(0x7)
0009e9 f009      	BREQ _0x2020013
0009ea 5f4f      	SUBI R20,-LOW(1)
                 _0x2020013:
0009eb 81ae      	LDD  R26,Y+6
0009ec 27bb      	CLR  R27
0009ed 2fe4      	MOV  R30,R20
0009ee d2ae      	RCALL SUBOPT_0x30
                +
0009ef 0f0e     +ADD R16 , R30
0009f0 1f1f     +ADC R17 , R31
                 	__ADDWRR 16,17,30,31
0009f1 cfe7      	RJMP _0x2020010
                 _0x2020012:
0009f2 01f9      	MOVW R30,R18
0009f3 91e4      	LPM  R30,Z
0009f4 85a9      	LDD  R26,Y+9
0009f5 85ba      	LDD  R27,Y+9+1
0009f6 93ec      	ST   X,R30
0009f7 01f8      	MOVW R30,R16
                 _0x2220008:
0009f8 d426      	RCALL __LOADLOCR6
0009f9 962c      	ADIW R28,12
0009fa 9508      	RET
                 ; .FEND
                 _glcd_new_line_G101:
                 ; .FSTART _glcd_new_line_G101
0009fb e0e0      	LDI  R30,LOW(0)
                +
0009fc 93e0 01a6+STS _glcd_state + ( 2 ) , R30
                 	__PUTB1MN _glcd_state,2
                +
0009fe 91a0 01a7+LDS R26 , _glcd_state + ( 3 )
                 	__GETB2MN _glcd_state,3
000a00 27bb      	CLR  R27
000a01 d2d8      	RCALL SUBOPT_0x3E
000a02 d285      	RCALL SUBOPT_0x2D
                +
000a03 91e0 01ab+LDS R30 , _glcd_state + ( 7 )
                 	__GETB1MN _glcd_state,7
000a05 d282      	RCALL SUBOPT_0x2D
000a06 d2da      	RCALL SUBOPT_0x3F
000a07 9508      	RET
                 ; .FEND
                 _glcd_putchar:
                 ; .FSTART _glcd_putchar
000a08 93aa      	ST   -Y,R26
000a09 9721      	SBIW R28,1
000a0a d2c4      	RCALL SUBOPT_0x3C
000a0b 9730      	SBIW R30,0
000a0c f409      	BRNE PC+2
000a0d c04e      	RJMP _0x2020020
000a0e 81af      	LDD  R26,Y+7
000a0f 30aa      	CPI  R26,LOW(0xA)
000a10 f409      	BRNE _0x2020021
000a11 c046      	RJMP _0x2020022
                 _0x2020021:
000a12 81ef      	LDD  R30,Y+7
000a13 93ea      	ST   -Y,R30
000a14 01de      	MOVW R26,R28
000a15 9617      	ADIW R26,7
000a16 df7f      	RCALL _glcd_getcharw_G101
000a17 01af      	MOVW R20,R30
000a18 9730      	SBIW R30,0
000a19 f411      	BRNE _0x2020023
000a1a d404      	RCALL __LOADLOCR6
000a1b c0fa      	RJMP _0x2220005
                 _0x2020023:
                +
000a1c 91e0 01aa+LDS R30 , _glcd_state + ( 6 )
                 	__GETB1MN _glcd_state,6
000a1e 81ae      	LDD  R26,Y+6
000a1f 0fea      	ADD  R30,R26
000a20 2f3e      	MOV  R19,R30
                +
000a21 91a0 01a6+LDS R26 , _glcd_state + ( 2 )
                 	__GETB2MN _glcd_state,2
000a23 27bb      	CLR  R27
000a24 e0f0      	LDI  R31,0
000a25 0fea      	ADD  R30,R26
000a26 1ffb      	ADC  R31,R27
000a27 018f      	MOVW R16,R30
                +
000a28 3801     +CPI R16 , LOW ( 129 )
000a29 e0e0     +LDI R30 , HIGH ( 129 )
000a2a 071e     +CPC R17 , R30
                 	__CPWRN 16,17,129
000a2b f018      	BRLO _0x2020024
000a2c 2f03      	MOV  R16,R19
000a2d 2711      	CLR  R17
000a2e dfcc      	RCALL _glcd_new_line_G101
                 _0x2020024:
000a2f d2b5      	RCALL SUBOPT_0x40
000a30 d2b7      	RCALL SUBOPT_0x41
000a31 85e8      	LDD  R30,Y+8
000a32 93ea      	ST   -Y,R30
000a33 d2a6      	RCALL SUBOPT_0x3E
000a34 93ea      	ST   -Y,R30
000a35 e0e1      	LDI  R30,LOW(1)
000a36 93ea      	ST   -Y,R30
000a37 935a      	ST   -Y,R21
000a38 934a      	ST   -Y,R20
000a39 e0a7      	LDI  R26,LOW(7)
000a3a dd72      	RCALL _glcd_block
000a3b d2a9      	RCALL SUBOPT_0x40
000a3c 81ae      	LDD  R26,Y+6
000a3d 0fea      	ADD  R30,R26
000a3e d2a9      	RCALL SUBOPT_0x41
                +
000a3f 91e0 01aa+LDS R30 , _glcd_state + ( 6 )
                 	__GETB1MN _glcd_state,6
000a41 93ea      	ST   -Y,R30
000a42 d297      	RCALL SUBOPT_0x3E
000a43 93ea      	ST   -Y,R30
000a44 d208      	RCALL SUBOPT_0x1D
000a45 d2a7      	RCALL SUBOPT_0x42
000a46 d29e      	RCALL SUBOPT_0x40
000a47 93ea      	ST   -Y,R30
                +
000a48 91a0 01a7+LDS R26 , _glcd_state + ( 3 )
                 	__GETB2MN _glcd_state,3
000a4a d28f      	RCALL SUBOPT_0x3E
000a4b 0fea      	ADD  R30,R26
000a4c 93ea      	ST   -Y,R30
000a4d 933a      	ST   -Y,R19
                +
000a4e 91e0 01ab+LDS R30 , _glcd_state + ( 7 )
                 	__GETB1MN _glcd_state,7
000a50 93ea      	ST   -Y,R30
000a51 d1fb      	RCALL SUBOPT_0x1D
000a52 d29a      	RCALL SUBOPT_0x42
000a53 e8e0      	LDI  R30,LOW(128)
000a54 e0f0      	LDI  R31,HIGH(128)
000a55 17e0      	CP   R30,R16
000a56 07f1      	CPC  R31,R17
000a57 f419      	BRNE _0x2020025
                 _0x2020022:
000a58 dfa2      	RCALL _glcd_new_line_G101
000a59 d3c5      	RCALL __LOADLOCR6
000a5a c0bb      	RJMP _0x2220005
                 _0x2020025:
000a5b c032      	RJMP _0x2020026
                 _0x2020020:
000a5c 81af      	LDD  R26,Y+7
000a5d 30aa      	CPI  R26,LOW(0xA)
000a5e f139      	BREQ _0x2020028
000a5f d285      	RCALL SUBOPT_0x40
000a60 d223      	RCALL SUBOPT_0x2C
000a61 2f3e      	MOV  R19,R30
                +
000a62 91e0 01a7+LDS R30 , _glcd_state + ( 3 )
                 	__GETB1MN _glcd_state,3
000a64 95e2      	SWAP R30
000a65 70ef      	ANDI R30,0xF
000a66 2f2e      	MOV  R18,R30
000a67 933a      	ST   -Y,R19
000a68 932a      	ST   -Y,R18
000a69 85a9      	LDD  R26,Y+9
000a6a dec0      	RCALL _glcd_putcharcg
000a6b 2fe3      	MOV  R30,R19
000a6c 0fee      	LSL  R30
000a6d 0fee      	LSL  R30
000a6e 0fee      	LSL  R30
                +
000a6f 93e0 01a6+STS _glcd_state + ( 2 ) , R30
                 	__PUTB1MN _glcd_state,2
000a71 e1a0      	LDI  R26,LOW(16)
000a72 9f2a      	MUL  R18,R26
000a73 01f0      	MOVW R30,R0
                +
000a74 93e0 01a7+STS _glcd_state + ( 3 ) , R30
                 	__PUTB1MN _glcd_state,3
000a76 d26e      	RCALL SUBOPT_0x40
000a77 d270      	RCALL SUBOPT_0x41
000a78 e0e8      	LDI  R30,LOW(8)
000a79 93ea      	ST   -Y,R30
000a7a e1e0      	LDI  R30,LOW(16)
000a7b 93ea      	ST   -Y,R30
000a7c d1d0      	RCALL SUBOPT_0x1D
000a7d d26f      	RCALL SUBOPT_0x42
000a7e d266      	RCALL SUBOPT_0x40
000a7f e0f0      	LDI  R31,0
000a80 9638      	ADIW R30,8
000a81 018f      	MOVW R16,R30
                +
000a82 3800     +CPI R16 , LOW ( 128 )
000a83 e0e0     +LDI R30 , HIGH ( 128 )
000a84 071e     +CPC R17 , R30
                 	__CPWRN 16,17,128
000a85 f040      	BRLO _0x2020029
                 _0x2020028:
                +
000a86 e000     +LDI R16 , LOW ( 0 )
000a87 e010     +LDI R17 , HIGH ( 0 )
                 	__GETWRN 16,17,0
                +
000a88 91e0 01a7+LDS R30 , _glcd_state + ( 3 )
                 	__GETB1MN _glcd_state,3
000a8a e0f0      	LDI  R31,0
000a8b 9670      	ADIW R30,16
000a8c 01df      	MOVW R26,R30
000a8d d253      	RCALL SUBOPT_0x3F
                 _0x2020029:
                 _0x2020026:
                +
000a8e 9300 01a6+STS _glcd_state + ( 2 ) , R16
                 	__PUTBMRN _glcd_state,2,16
000a90 d38e      	RCALL __LOADLOCR6
000a91 c084      	RJMP _0x2220005
                 ; .FEND
                 _glcd_putcharxy:
                 ; .FSTART _glcd_putcharxy
000a92 d1e9      	RCALL SUBOPT_0x2A
000a93 d03c      	RCALL _glcd_moveto
000a94 81a8      	LD   R26,Y
000a95 df72      	RCALL _glcd_putchar
000a96 c0e2      	RJMP _0x2220002
                 ; .FEND
                 _glcd_outtextxy:
                 ; .FSTART _glcd_outtextxy
000a97 d1cf      	RCALL SUBOPT_0x24
000a98 931a      	ST   -Y,R17
000a99 81ec      	LDD  R30,Y+4
000a9a 93ea      	ST   -Y,R30
000a9b 81ac      	LDD  R26,Y+4
000a9c d033      	RCALL _glcd_moveto
                 _0x202002A:
000a9d d253      	RCALL SUBOPT_0x43
000a9e f019      	BREQ _0x202002C
000a9f 2fa1      	MOV  R26,R17
000aa0 df67      	RCALL _glcd_putchar
000aa1 cffb      	RJMP _0x202002A
                 _0x202002C:
000aa2 8118      	LDD  R17,Y+0
000aa3 c08b      	RJMP _0x2220004
                 ; .FEND
                 _glcd_outtext:
                 ; .FSTART _glcd_outtext
000aa4 d1c2      	RCALL SUBOPT_0x24
000aa5 931a      	ST   -Y,R17
                 _0x2020033:
000aa6 d24a      	RCALL SUBOPT_0x43
000aa7 f019      	BREQ _0x2020035
000aa8 2fa1      	MOV  R26,R17
000aa9 df5e      	RCALL _glcd_putchar
000aaa cffb      	RJMP _0x2020033
                 _0x2020035:
000aab 8118      	LDD  R17,Y+0
000aac c0cc      	RJMP _0x2220002
                 ; .FEND
                 _glcd_putimage:
                 ; .FSTART _glcd_putimage
000aad 93aa      	ST   -Y,R26
000aae d36b      	RCALL __SAVELOCR4
000aaf 81ac      	LDD  R26,Y+4
000ab0 30a5      	CPI  R26,LOW(0x5)
000ab1 f4d0      	BRSH _0x202003C
000ab2 d245      	RCALL SUBOPT_0x44
000ab3 910d      	LD   R16,X+
000ab4 d246      	RCALL SUBOPT_0x45
000ab5 911d      	LD   R17,X+
000ab6 d244      	RCALL SUBOPT_0x45
000ab7 912d      	LD   R18,X+
000ab8 d242      	RCALL SUBOPT_0x45
000ab9 913d      	LD   R19,X+
000aba 83ad      	STD  Y+5,R26
000abb 83be      	STD  Y+5+1,R27
000abc 85e8      	LDD  R30,Y+8
000abd 93ea      	ST   -Y,R30
000abe 85e8      	LDD  R30,Y+8
000abf 93ea      	ST   -Y,R30
000ac0 930a      	ST   -Y,R16
000ac1 932a      	ST   -Y,R18
000ac2 d18a      	RCALL SUBOPT_0x1D
000ac3 85ea      	LDD  R30,Y+10
000ac4 85fb      	LDD  R31,Y+10+1
000ac5 d101      	RCALL SUBOPT_0x2
000ac6 85ab      	LDD  R26,Y+11
000ac7 dce5      	RCALL _glcd_block
000ac8 930a      	ST   -Y,R16
000ac9 2fa2      	MOV  R26,R18
000aca dea7      	RCALL _glcd_imagesize
000acb c001      	RJMP _0x2220007
                 _0x202003C:
000acc d1fd      	RCALL SUBOPT_0x3B
                 _0x2220007:
000acd d353      	RCALL __LOADLOCR4
000ace 9629      	ADIW R28,9
000acf 9508      	RET
                 ; .FEND
                 _glcd_moveto:
                 ; .FSTART _glcd_moveto
000ad0 93aa      	ST   -Y,R26
000ad1 81a9      	LDD  R26,Y+1
000ad2 27bb      	CLR  R27
000ad3 de80      	RCALL _glcd_clipx
                +
000ad4 93e0 01a6+STS _glcd_state + ( 2 ) , R30
                 	__PUTB1MN _glcd_state,2
000ad6 81a8      	LD   R26,Y
000ad7 27bb      	CLR  R27
000ad8 d208      	RCALL SUBOPT_0x3F
000ad9 c05d      	RJMP _0x2220003
                 ; .FEND
                 
                 	.CSEG
                 _rtc_init:
                 ; .FSTART _rtc_init
000ada 93aa      	ST   -Y,R26
000adb 81ea      	LDD  R30,Y+2
000adc 70e3      	ANDI R30,LOW(0x3)
000add 83ea      	STD  Y+2,R30
000ade 81e9      	LDD  R30,Y+1
000adf 30e0      	CPI  R30,0
000ae0 f019      	BREQ _0x2060003
000ae1 81ea      	LDD  R30,Y+2
000ae2 61e0      	ORI  R30,0x10
000ae3 83ea      	STD  Y+2,R30
                 _0x2060003:
000ae4 81e8      	LD   R30,Y
000ae5 30e0      	CPI  R30,0
000ae6 f019      	BREQ _0x2060004
000ae7 81ea      	LDD  R30,Y+2
000ae8 68e0      	ORI  R30,0x80
000ae9 83ea      	STD  Y+2,R30
                 _0x2060004:
000aea d213      	RCALL SUBOPT_0x46
000aeb e0a7      	LDI  R26,LOW(7)
000aec d26f      	RCALL _i2c_write
000aed 81aa      	LDD  R26,Y+2
000aee d212      	RCALL SUBOPT_0x47
000aef c089      	RJMP _0x2220002
                 ; .FEND
                 _rtc_get_time:
                 ; .FSTART _rtc_get_time
000af0 d176      	RCALL SUBOPT_0x24
000af1 d20c      	RCALL SUBOPT_0x46
000af2 e0a0      	LDI  R26,LOW(0)
000af3 d20d      	RCALL SUBOPT_0x47
000af4 d20e      	RCALL SUBOPT_0x48
000af5 d212      	RCALL SUBOPT_0x49
000af6 d1d0      	RCALL SUBOPT_0x3A
000af7 d212      	RCALL SUBOPT_0x4A
000af8 d215      	RCALL SUBOPT_0x4B
000af9 81ac      	LDD  R26,Y+4
000afa 81bd      	LDD  R27,Y+4+1
000afb 93ec      	ST   X,R30
000afc d23a      	RCALL _i2c_stop
                 _0x2220006:
000afd 9626      	ADIW R28,6
000afe 9508      	RET
                 ; .FEND
                 _rtc_set_time:
                 ; .FSTART _rtc_set_time
000aff 93aa      	ST   -Y,R26
000b00 d1fd      	RCALL SUBOPT_0x46
000b01 e0a0      	LDI  R26,LOW(0)
000b02 d211      	RCALL SUBOPT_0x4C
000b03 d215      	RCALL SUBOPT_0x4D
000b04 d219      	RCALL SUBOPT_0x4E
000b05 d1fb      	RCALL SUBOPT_0x47
000b06 c072      	RJMP _0x2220002
                 ; .FEND
                 _rtc_get_date:
                 ; .FSTART _rtc_get_date
000b07 d15f      	RCALL SUBOPT_0x24
000b08 d1f5      	RCALL SUBOPT_0x46
000b09 e0a3      	LDI  R26,LOW(3)
000b0a d1f6      	RCALL SUBOPT_0x47
000b0b d1f7      	RCALL SUBOPT_0x48
000b0c 81ae      	LDD  R26,Y+6
000b0d 81bf      	LDD  R27,Y+6+1
000b0e d1fb      	RCALL SUBOPT_0x4A
000b0f 81ac      	LDD  R26,Y+4
000b10 81bd      	LDD  R27,Y+4+1
000b11 d1f8      	RCALL SUBOPT_0x4A
000b12 d1fb      	RCALL SUBOPT_0x4B
000b13 d1b3      	RCALL SUBOPT_0x3A
000b14 93ec      	ST   X,R30
000b15 d221      	RCALL _i2c_stop
                 _0x2220005:
000b16 9628      	ADIW R28,8
000b17 9508      	RET
                 ; .FEND
                 _rtc_set_date:
                 ; .FSTART _rtc_set_date
000b18 93aa      	ST   -Y,R26
000b19 d1e4      	RCALL SUBOPT_0x46
000b1a e0a3      	LDI  R26,LOW(3)
000b1b d240      	RCALL _i2c_write
000b1c 81ab      	LDD  R26,Y+3
000b1d d200      	RCALL SUBOPT_0x4E
000b1e d1fa      	RCALL SUBOPT_0x4D
000b1f d1f4      	RCALL SUBOPT_0x4C
000b20 d1e0      	RCALL SUBOPT_0x47
000b21 c072      	RJMP _0x2220001
                 ; .FEND
                 	#ifndef __SLEEP_DEFINED__
                 	#endif
                 
                 	.CSEG
                 	#ifndef __SLEEP_DEFINED__
                 	#endif
                 
                 	.CSEG
                 
                 	.DSEG
                 
                 	.DSEG
                 
                 	.DSEG
                 
                 	.DSEG
                 
                 	.CSEG
                 _memset:
                 ; .FSTART _memset
000b22 d144      	RCALL SUBOPT_0x24
000b23 81b9          ldd  r27,y+1
000b24 81a8          ld   r26,y
000b25 9610          adiw r26,0
000b26 f031          breq memset1
000b27 81fc          ldd  r31,y+4
000b28 81eb          ldd  r30,y+3
000b29 816a          ldd  r22,y+2
                 memset0:
000b2a 9361          st   z+,r22
000b2b 9711          sbiw r26,1
000b2c f7e9          brne memset0
                 memset1:
000b2d 81eb          ldd  r30,y+3
000b2e 81fc          ldd  r31,y+4
                 _0x2220004:
000b2f 9625      	ADIW R28,5
000b30 9508      	RET
                 ; .FEND
                 
                 	.CSEG
                 
                 	.CSEG
                 _glcd_getmask:
                 ; .FSTART _glcd_getmask
000b31 93aa      	ST   -Y,R26
000b32 81e8      	LD   R30,Y
000b33 d16c      	RCALL SUBOPT_0x31
000b34 91a4      	LPM  R26,Z
000b35 81e9      	LDD  R30,Y+1
000b36 d24b      	RCALL __LSLB12
                 _0x2220003:
000b37 9622      	ADIW R28,2
000b38 9508      	RET
                 ; .FEND
                 _glcd_mappixcolor1bit:
                 ; .FSTART _glcd_mappixcolor1bit
000b39 93aa      	ST   -Y,R26
000b3a 931a      	ST   -Y,R17
000b3b 81e9      	LDD  R30,Y+1
000b3c 30e7      	CPI  R30,LOW(0x7)
000b3d f011      	BREQ _0x21A0007
000b3e 30ea      	CPI  R30,LOW(0xA)
000b3f f419      	BRNE _0x21A0008
                 _0x21A0007:
000b40 9110 01a4 	LDS  R17,_glcd_state
000b42 c009      	RJMP _0x21A0009
                 _0x21A0008:
000b43 30e9      	CPI  R30,LOW(0x9)
000b44 f419      	BRNE _0x21A000B
                +
000b45 9110 01a5+LDS R17 , _glcd_state + ( 1 )
                 	__GETBRMN 17,_glcd_state,1
000b47 c004      	RJMP _0x21A0009
                 _0x21A000B:
000b48 30e8      	CPI  R30,LOW(0x8)
000b49 f4a1      	BRNE _0x21A0005
                +
000b4a 9110 01b4+LDS R17 , _glcd_state + ( 16 )
                 	__GETBRMN 17,_glcd_state,16
                 _0x21A0009:
                +
000b4c 91e0 01a5+LDS R30 , _glcd_state + ( 1 )
                 	__GETB1MN _glcd_state,1
000b4e 30e0      	CPI  R30,0
000b4f f049      	BREQ _0x21A000E
000b50 3010      	CPI  R17,0
000b51 f019      	BREQ _0x21A000F
000b52 efef      	LDI  R30,LOW(255)
000b53 8118      	LDD  R17,Y+0
000b54 c024      	RJMP _0x2220002
                 _0x21A000F:
000b55 81ea      	LDD  R30,Y+2
000b56 95e0      	COM  R30
000b57 8118      	LDD  R17,Y+0
000b58 c020      	RJMP _0x2220002
                 _0x21A000E:
000b59 3010      	CPI  R17,0
000b5a f419      	BRNE _0x21A0011
000b5b e0e0      	LDI  R30,LOW(0)
000b5c 8118      	LDD  R17,Y+0
000b5d c01b      	RJMP _0x2220002
                 _0x21A0011:
                 _0x21A0005:
000b5e 81ea      	LDD  R30,Y+2
000b5f 8118      	LDD  R17,Y+0
000b60 c018      	RJMP _0x2220002
                 ; .FEND
                 _glcd_readmem:
                 ; .FSTART _glcd_readmem
000b61 d105      	RCALL SUBOPT_0x24
000b62 81ea      	LDD  R30,Y+2
000b63 30e1      	CPI  R30,LOW(0x1)
000b64 f421      	BRNE _0x21A0015
000b65 81e8      	LD   R30,Y
000b66 81f9      	LDD  R31,Y+1
000b67 91e4      	LPM  R30,Z
000b68 c010      	RJMP _0x2220002
                 _0x21A0015:
000b69 30e2      	CPI  R30,LOW(0x2)
000b6a f419      	BRNE _0x21A0016
000b6b d15b      	RCALL SUBOPT_0x3A
000b6c d28a      	RCALL __EEPROMRDB
000b6d c00b      	RJMP _0x2220002
                 _0x21A0016:
000b6e 30e3      	CPI  R30,LOW(0x3)
000b6f f439      	BRNE _0x21A0018
000b70 d156      	RCALL SUBOPT_0x3A
                +
000b71 91e0 01bd+LDS R30 , _glcd_state + ( 25 )
000b73 91f0 01be+LDS R31 , _glcd_state + ( 25 ) + 1
000b75 9509     +ICALL
                 	__CALL1MN _glcd_state,25
000b76 c002      	RJMP _0x2220002
                 _0x21A0018:
000b77 d14f      	RCALL SUBOPT_0x3A
000b78 91ec      	LD   R30,X
                 _0x2220002:
000b79 9623      	ADIW R28,3
000b7a 9508      	RET
                 ; .FEND
                 _glcd_writemem:
                 ; .FSTART _glcd_writemem
000b7b 93aa      	ST   -Y,R26
000b7c 81eb      	LDD  R30,Y+3
000b7d 30e0      	CPI  R30,0
000b7e f421      	BRNE _0x21A001C
000b7f 81e8      	LD   R30,Y
000b80 d0eb      	RCALL SUBOPT_0x26
000b81 93ec      	ST   X,R30
000b82 c011      	RJMP _0x21A001B
                 _0x21A001C:
000b83 30e2      	CPI  R30,LOW(0x2)
000b84 f421      	BRNE _0x21A001D
000b85 81e8      	LD   R30,Y
000b86 d0e5      	RCALL SUBOPT_0x26
000b87 d27b      	RCALL __EEPROMWRB
000b88 c00b      	RJMP _0x21A001B
                 _0x21A001D:
000b89 30e3      	CPI  R30,LOW(0x3)
000b8a f449      	BRNE _0x21A001B
000b8b 81e9      	LDD  R30,Y+1
000b8c 81fa      	LDD  R31,Y+1+1
000b8d d039      	RCALL SUBOPT_0x2
000b8e 81aa      	LDD  R26,Y+2
                +
000b8f 91e0 01bf+LDS R30 , _glcd_state + ( 27 )
000b91 91f0 01c0+LDS R31 , _glcd_state + ( 27 ) + 1
000b93 9509     +ICALL
                 	__CALL1MN _glcd_state,27
                 _0x21A001B:
                 _0x2220001:
000b94 9624      	ADIW R28,4
000b95 9508      	RET
                 ; .FEND
                 _glcd_revbits:
                 ; .FSTART _glcd_revbits
000b96 93aa      	ST   -Y,R26
000b97 91a9          ld  r26,y+
000b98 fba0          bst r26,0
000b99 f9e7          bld r30,7
                 
000b9a fba1          bst r26,1
000b9b f9e6          bld r30,6
                 
000b9c fba2          bst r26,2
000b9d f9e5          bld r30,5
                 
000b9e fba3          bst r26,3
000b9f f9e4          bld r30,4
                 
000ba0 fba4          bst r26,4
000ba1 f9e3          bld r30,3
                 
000ba2 fba5          bst r26,5
000ba3 f9e2          bld r30,2
                 
000ba4 fba6          bst r26,6
000ba5 f9e1          bld r30,1
                 
000ba6 fba7          bst r26,7
000ba7 f9e0          bld r30,0
000ba8 9508          ret
                 ; .FEND
                 
                 	.CSEG
                 _bcd2bin:
                 ; .FSTART _bcd2bin
000ba9 93aa      	ST   -Y,R26
000baa 81e8          ld   r30,y
000bab 95e2          swap r30
000bac 70ef          andi r30,0xf
000bad 2fae          mov  r26,r30
000bae 0faa          lsl  r26
000baf 0faa          lsl  r26
000bb0 0fea          add  r30,r26
000bb1 0fee          lsl  r30
000bb2 91a9          ld   r26,y+
000bb3 70af          andi r26,0xf
000bb4 0fea          add  r30,r26
000bb5 9508          ret
                 ; .FEND
                 _bin2bcd:
                 ; .FSTART _bin2bcd
000bb6 93aa      	ST   -Y,R26
000bb7 91a9          ld   r26,y+
000bb8 27ee          clr  r30
                 bin2bcd0:
000bb9 50aa          subi r26,10
000bba f012          brmi bin2bcd1
000bbb 5fe0          subi r30,-16
000bbc cffc          rjmp bin2bcd0
                 bin2bcd1:
000bbd 5fa6          subi r26,-10
000bbe 0fea          add  r30,r26
000bbf 9508          ret
                 ; .FEND
                 
                 	.CSEG
                 
                 	.CSEG
                 
                 	.DSEG
                 
                 	.CSEG
                 
                 	.DSEG
                 _glcd_state:
0001a4           	.BYTE 0x1D
                 _moon:
0001c1           	.BYTE 0x1E
                 _sun:
0001df           	.BYTE 0x1E
                 _alarm_on:
0001fd           	.BYTE 0xC
                 _alarm_off:
000209           	.BYTE 0xC
                 
                 	.ESEG
                 _min_set:
000000           	.BYTE 0x1
                 _hour_set:
000001           	.BYTE 0x1
                 _alarm:
000002           	.BYTE 0x1
                 
                 	.DSEG
                 _st7920_graphics_on_G100:
000215           	.BYTE 0x1
                 _st7920_bits8_15_G100:
000216           	.BYTE 0x1
                 _xt_G100:
000217           	.BYTE 0x1
                 _yt_G100:
000218           	.BYTE 0x1
                 __seed_G110:
000219           	.BYTE 0x4
                 
                 	.CSEG
                 ;OPTIMIZER ADDED SUBROUTINE, CALLED 3 TIMES, CODE SIZE REDUCTION:2 WORDS
                 SUBOPT_0x0:
000bc0 93ea      	ST   -Y,R30
000bc1 b7ef      	IN   R30,SREG
000bc2 93ea      	ST   -Y,R30
000bc3 9508      	RET
                 
                 ;OPTIMIZER ADDED SUBROUTINE, CALLED 13 TIMES, CODE SIZE REDUCTION:10 WORDS
                 SUBOPT_0x1:
000bc4 e0e4      	LDI  R30,LOW(4)
000bc5 e0f0      	LDI  R31,HIGH(4)
000bc6 9508      	RET
                 
                 ;OPTIMIZER ADDED SUBROUTINE, CALLED 18 TIMES, CODE SIZE REDUCTION:15 WORDS
                 SUBOPT_0x2:
000bc7 93fa      	ST   -Y,R31
000bc8 93ea      	ST   -Y,R30
000bc9 9508      	RET
                 
                 ;OPTIMIZER ADDED SUBROUTINE, CALLED 2 TIMES, CODE SIZE REDUCTION:7 WORDS
                 SUBOPT_0x3:
000bca ecea      	LDI  R30,LOW(_fontNumber*2)
000bcb e0f2      	LDI  R31,HIGH(_fontNumber*2)
                +
000bcc 93e0 01a8+STS _glcd_state + ( 4 ) , R30
000bce 93f0 01a9+STS _glcd_state + ( 4 ) + 1 , R31
                 	__PUTW1MN _glcd_state,4
000bd0 81e9      	LDD  R30,Y+1
000bd1 93ea      	ST   -Y,R30
000bd2 81e9      	LDD  R30,Y+1
000bd3 93ea      	ST   -Y,R30
000bd4 9508      	RET
                 
                 ;OPTIMIZER ADDED SUBROUTINE, CALLED 5 TIMES, CODE SIZE REDUCTION:18 WORDS
                 SUBOPT_0x4:
000bd5 e0b0      	LDI  R27,0
000bd6 e0ea      	LDI  R30,LOW(10)
000bd7 e0f0      	LDI  R31,HIGH(10)
000bd8 d1f9      	RCALL __DIVW21
000bd9 5de0      	SUBI R30,-LOW(48)
000bda 2fae      	MOV  R26,R30
000bdb 9508      	RET
                 
                 ;OPTIMIZER ADDED SUBROUTINE, CALLED 5 TIMES, CODE SIZE REDUCTION:22 WORDS
                 SUBOPT_0x5:
000bdc 27bb      	CLR  R27
000bdd e0ea      	LDI  R30,LOW(10)
000bde e0f0      	LDI  R31,HIGH(10)
000bdf d1f7      	RCALL __MODW21
000be0 5de0      	SUBI R30,-LOW(48)
000be1 2fae      	MOV  R26,R30
000be2 ce25      	RJMP _glcd_putchar
                 
                 ;OPTIMIZER ADDED SUBROUTINE, CALLED 5 TIMES, CODE SIZE REDUCTION:30 WORDS
                 SUBOPT_0x6:
000be3 e0e0      	LDI  R30,0
000be4 fc20      	SBRC R2,0
000be5 e0e1      	LDI  R30,1
000be6 e0f0      	LDI  R31,0
000be7 01df      	MOVW R26,R30
000be8 e0e2      	LDI  R30,LOW(2)
000be9 e0f0      	LDI  R31,HIGH(2)
000bea d1ec      	RCALL __MODW21
000beb 9730      	SBIW R30,0
000bec 9508      	RET
                 
                 ;OPTIMIZER ADDED SUBROUTINE, CALLED 2 TIMES, CODE SIZE REDUCTION:4 WORDS
                 SUBOPT_0x7:
000bed ecea      	LDI  R30,LOW(_fontNumber*2)
000bee e0f2      	LDI  R31,HIGH(_fontNumber*2)
                +
000bef 93e0 01a8+STS _glcd_state + ( 4 ) , R30
000bf1 93f0 01a9+STS _glcd_state + ( 4 ) + 1 , R31
                 	__PUTW1MN _glcd_state,4
000bf3 81e9      	LDD  R30,Y+1
000bf4 9508      	RET
                 
                 ;OPTIMIZER ADDED SUBROUTINE, CALLED 7 TIMES, CODE SIZE REDUCTION:10 WORDS
                 SUBOPT_0x8:
000bf5 93ea      	ST   -Y,R30
000bf6 81e9      	LDD  R30,Y+1
000bf7 93ea      	ST   -Y,R30
000bf8 9508      	RET
                 
                 ;OPTIMIZER ADDED SUBROUTINE, CALLED 5 TIMES, CODE SIZE REDUCTION:2 WORDS
                 SUBOPT_0x9:
000bf9 e0f0      	LDI  R31,0
000bfa 01df      	MOVW R26,R30
000bfb 9508      	RET
                 
                 ;OPTIMIZER ADDED SUBROUTINE, CALLED 13 TIMES, CODE SIZE REDUCTION:10 WORDS
                 SUBOPT_0xA:
000bfc d1da      	RCALL __MODW21
000bfd 9730      	SBIW R30,0
000bfe 9508      	RET
                 
                 ;OPTIMIZER ADDED SUBROUTINE, CALLED 2 TIMES, CODE SIZE REDUCTION:5 WORDS
                 SUBOPT_0xB:
000bff 93aa      	ST   -Y,R26
000c00 e2e6      	LDI  R30,LOW(_font5x7*2)
000c01 e0f0      	LDI  R31,HIGH(_font5x7*2)
                +
000c02 93e0 01a8+STS _glcd_state + ( 4 ) , R30
000c04 93f0 01a9+STS _glcd_state + ( 4 ) + 1 , R31
                 	__PUTW1MN _glcd_state,4
000c06 81e9      	LDD  R30,Y+1
000c07 9508      	RET
                 
                 ;OPTIMIZER ADDED SUBROUTINE, CALLED 21 TIMES, CODE SIZE REDUCTION:18 WORDS
                 SUBOPT_0xC:
000c08 2de8      	MOV  R30,R8
000c09 e0f0      	LDI  R31,0
000c0a 9508      	RET
                 
                 ;OPTIMIZER ADDED SUBROUTINE, CALLED 11 TIMES, CODE SIZE REDUCTION:28 WORDS
                 SUBOPT_0xD:
000c0b 2daa      	MOV  R26,R10
000c0c 27bb      	CLR  R27
000c0d dfb6      	RCALL SUBOPT_0x1
000c0e cfed      	RJMP SUBOPT_0xA
                 
                 ;OPTIMIZER ADDED SUBROUTINE, CALLED 3 TIMES, CODE SIZE REDUCTION:6 WORDS
                 SUBOPT_0xE:
000c0f 2dea      	MOV  R30,R10
000c10 e0f0      	LDI  R31,0
000c11 53e0      	SUBI R30,LOW(-2000)
000c12 4ff8      	SBCI R31,HIGH(-2000)
000c13 9731      	SBIW R30,1
000c14 9508      	RET
                 
                 ;OPTIMIZER ADDED SUBROUTINE, CALLED 15 TIMES, CODE SIZE REDUCTION:12 WORDS
                 SUBOPT_0xF:
000c15 81eb      	LDD  R30,Y+3
000c16 93ea      	ST   -Y,R30
000c17 9508      	RET
                 
                 ;OPTIMIZER ADDED SUBROUTINE, CALLED 2 TIMES, CODE SIZE REDUCTION:2 WORDS
                 SUBOPT_0x10:
000c18 5fe6      	SUBI R30,-LOW(10)
000c19 93ea      	ST   -Y,R30
000c1a 81e9      	LDD  R30,Y+1
000c1b 5fef      	SUBI R30,-LOW(1)
000c1c 93ea      	ST   -Y,R30
000c1d 9508      	RET
                 
                 ;OPTIMIZER ADDED SUBROUTINE, CALLED 2 TIMES, CODE SIZE REDUCTION:1 WORDS
                 SUBOPT_0x11:
000c1e e0a1      	LDI  R26,LOW(_hour_set)
000c1f e0b0      	LDI  R27,HIGH(_hour_set)
000c20 d1d6      	RCALL __EEPROMRDB
000c21 cfd7      	RJMP SUBOPT_0x9
                 
                 ;OPTIMIZER ADDED SUBROUTINE, CALLED 4 TIMES, CODE SIZE REDUCTION:1 WORDS
                 SUBOPT_0x12:
000c22 e0ea      	LDI  R30,LOW(10)
000c23 e0f0      	LDI  R31,HIGH(10)
000c24 9508      	RET
                 
                 ;OPTIMIZER ADDED SUBROUTINE, CALLED 4 TIMES, CODE SIZE REDUCTION:1 WORDS
                 SUBOPT_0x13:
000c25 5de0      	SUBI R30,-LOW(48)
000c26 2fae      	MOV  R26,R30
000c27 9508      	RET
                 
                 ;OPTIMIZER ADDED SUBROUTINE, CALLED 2 TIMES, CODE SIZE REDUCTION:1 WORDS
                 SUBOPT_0x14:
000c28 e0a0      	LDI  R26,LOW(_min_set)
000c29 e0b0      	LDI  R27,HIGH(_min_set)
000c2a d1cc      	RCALL __EEPROMRDB
000c2b cfcd      	RJMP SUBOPT_0x9
                 
                 ;OPTIMIZER ADDED SUBROUTINE, CALLED 3 TIMES, CODE SIZE REDUCTION:10 WORDS
                 SUBOPT_0x15:
000c2c e2e6      	LDI  R30,LOW(_font5x7*2)
000c2d e0f0      	LDI  R31,HIGH(_font5x7*2)
                +
000c2e 93e0 01a8+STS _glcd_state + ( 4 ) , R30
000c30 93f0 01a9+STS _glcd_state + ( 4 ) + 1 , R31
                 	__PUTW1MN _glcd_state,4
000c32 81e9      	LDD  R30,Y+1
000c33 9508      	RET
                 
                 ;OPTIMIZER ADDED SUBROUTINE, CALLED 7 TIMES, CODE SIZE REDUCTION:4 WORDS
                 SUBOPT_0x16:
000c34 e0a0      	LDI  R26,LOW(_min_set)
000c35 e0b0      	LDI  R27,HIGH(_min_set)
000c36 9508      	RET
                 
                 ;OPTIMIZER ADDED SUBROUTINE, CALLED 7 TIMES, CODE SIZE REDUCTION:4 WORDS
                 SUBOPT_0x17:
000c37 e0a1      	LDI  R26,LOW(_hour_set)
000c38 e0b0      	LDI  R27,HIGH(_hour_set)
000c39 9508      	RET
                 
                 ;OPTIMIZER ADDED SUBROUTINE, CALLED 7 TIMES, CODE SIZE REDUCTION:10 WORDS
                 SUBOPT_0x18:
000c3a e0a2      	LDI  R26,LOW(_alarm)
000c3b e0b0      	LDI  R27,HIGH(_alarm)
000c3c d1ba      	RCALL __EEPROMRDB
000c3d 9508      	RET
                 
                 ;OPTIMIZER ADDED SUBROUTINE, CALLED 4 TIMES, CODE SIZE REDUCTION:7 WORDS
                 SUBOPT_0x19:
000c3e e2eb      	LDI  R30,LOW(43)
000c3f 93ea      	ST   -Y,R30
000c40 e3e4      	LDI  R30,LOW(52)
000c41 93ea      	ST   -Y,R30
000c42 9508      	RET
                 
                 ;OPTIMIZER ADDED SUBROUTINE, CALLED 5 TIMES, CODE SIZE REDUCTION:2 WORDS
                 SUBOPT_0x1A:
000c43 e0a0      	LDI  R26,LOW(0)
000c44 ce68      	RJMP _glcd_putimage
                 
                 ;OPTIMIZER ADDED SUBROUTINE, CALLED 4 TIMES, CODE SIZE REDUCTION:1 WORDS
                 SUBOPT_0x1B:
000c45 e0e0      	LDI  R30,LOW(0)
000c46 d1bc      	RCALL __EEPROMWRB
000c47 9508      	RET
                 
                 ;OPTIMIZER ADDED SUBROUTINE, CALLED 4 TIMES, CODE SIZE REDUCTION:7 WORDS
                 SUBOPT_0x1C:
000c48 e3e9      	LDI  R30,LOW(57)
000c49 93ea      	ST   -Y,R30
000c4a e0e2      	LDI  R30,LOW(2)
000c4b 93ea      	ST   -Y,R30
000c4c 9508      	RET
                 
                 ;OPTIMIZER ADDED SUBROUTINE, CALLED 8 TIMES, CODE SIZE REDUCTION:5 WORDS
                 SUBOPT_0x1D:
000c4d e0e0      	LDI  R30,LOW(0)
000c4e 93ea      	ST   -Y,R30
000c4f 9508      	RET
                 
                 ;OPTIMIZER ADDED SUBROUTINE, CALLED 2 TIMES, CODE SIZE REDUCTION:1 WORDS
                 SUBOPT_0x1E:
000c50 b3e8      	IN   R30,0x18
000c51 7fe0      	ANDI R30,LOW(0xF0)
000c52 2fae      	MOV  R26,R30
000c53 81e8      	LD   R30,Y
000c54 9508      	RET
                 
                 ;OPTIMIZER ADDED SUBROUTINE, CALLED 3 TIMES, CODE SIZE REDUCTION:2 WORDS
                 SUBOPT_0x1F:
000c55 d9ee      	RCALL _st7920_delay_G100
000c56 9a97      	SBI  0x12,7
000c57 c9ec      	RJMP _st7920_delay_G100
                 
                 ;OPTIMIZER ADDED SUBROUTINE, CALLED 2 TIMES, CODE SIZE REDUCTION:1 WORDS
                 SUBOPT_0x20:
000c58 9a96      	SBI  0x12,6
000c59 b3e7      	IN   R30,0x17
000c5a 7fe0      	ANDI R30,LOW(0xF0)
000c5b bbe7      	OUT  0x17,R30
000c5c 9508      	RET
                 
                 ;OPTIMIZER ADDED SUBROUTINE, CALLED 10 TIMES, CODE SIZE REDUCTION:7 WORDS
                 SUBOPT_0x21:
000c5d 2fae      	MOV  R26,R30
000c5e ca29      	RJMP _st7920_wrcmd
                 
                 ;OPTIMIZER ADDED SUBROUTINE, CALLED 3 TIMES, CODE SIZE REDUCTION:4 WORDS
                 SUBOPT_0x22:
000c5f 91e0 0215 	LDS  R30,_st7920_graphics_on_G100
000c61 62e0      	ORI  R30,0x20
000c62 cffa      	RJMP SUBOPT_0x21
                 
                 ;OPTIMIZER ADDED SUBROUTINE, CALLED 4 TIMES, CODE SIZE REDUCTION:7 WORDS
                 SUBOPT_0x23:
000c63 91e0 0215 	LDS  R30,_st7920_graphics_on_G100
000c65 62e4      	ORI  R30,LOW(0x24)
000c66 cff6      	RJMP SUBOPT_0x21
                 
                 ;OPTIMIZER ADDED SUBROUTINE, CALLED 10 TIMES, CODE SIZE REDUCTION:7 WORDS
                 SUBOPT_0x24:
000c67 93ba      	ST   -Y,R27
000c68 93aa      	ST   -Y,R26
000c69 9508      	RET
                 
                 ;OPTIMIZER ADDED SUBROUTINE, CALLED 4 TIMES, CODE SIZE REDUCTION:1 WORDS
                 SUBOPT_0x25:
000c6a e0b0      	LDI  R27,0
000c6b c108      	RJMP _delay_ms
                 
                 ;OPTIMIZER ADDED SUBROUTINE, CALLED 7 TIMES, CODE SIZE REDUCTION:4 WORDS
                 SUBOPT_0x26:
000c6c 81a9      	LDD  R26,Y+1
000c6d 81ba      	LDD  R27,Y+1+1
000c6e 9508      	RET
                 
                 ;OPTIMIZER ADDED SUBROUTINE, CALLED 2 TIMES, CODE SIZE REDUCTION:1 WORDS
                 SUBOPT_0x27:
                +
000c6f 93e0 01a8+STS _glcd_state + ( 4 ) , R30
000c71 93f0 01a9+STS _glcd_state + ( 4 ) + 1 , R31
                 	__PUTW1MN _glcd_state,4
000c73 9508      	RET
                 
                 ;OPTIMIZER ADDED SUBROUTINE, CALLED 2 TIMES, CODE SIZE REDUCTION:1 WORDS
                 SUBOPT_0x28:
                +
000c74 93e0 01bd+STS _glcd_state + ( 25 ) , R30
000c76 93f0 01be+STS _glcd_state + ( 25 ) + 1 , R31
                 	__PUTW1MN _glcd_state,25
000c78 9508      	RET
                 
                 ;OPTIMIZER ADDED SUBROUTINE, CALLED 11 TIMES, CODE SIZE REDUCTION:8 WORDS
                 SUBOPT_0x29:
000c79 e0e0      	LDI  R30,LOW(0)
000c7a e0f0      	LDI  R31,HIGH(0)
000c7b 9508      	RET
                 
                 ;OPTIMIZER ADDED SUBROUTINE, CALLED 2 TIMES, CODE SIZE REDUCTION:1 WORDS
                 SUBOPT_0x2A:
000c7c 93aa      	ST   -Y,R26
000c7d 81ea      	LDD  R30,Y+2
000c7e 93ea      	ST   -Y,R30
000c7f 81aa      	LDD  R26,Y+2
000c80 9508      	RET
                 
                 ;OPTIMIZER ADDED SUBROUTINE, CALLED 4 TIMES, CODE SIZE REDUCTION:4 WORDS
                 SUBOPT_0x2B:
000c81 dacd      	RCALL _st7920_rdbyte_G100
000c82 2fae      	MOV  R26,R30
000c83 cf12      	RJMP _glcd_revbits
                 
                 ;OPTIMIZER ADDED SUBROUTINE, CALLED 7 TIMES, CODE SIZE REDUCTION:10 WORDS
                 SUBOPT_0x2C:
000c84 95e6      	LSR  R30
000c85 95e6      	LSR  R30
000c86 95e6      	LSR  R30
000c87 9508      	RET
                 
                 ;OPTIMIZER ADDED SUBROUTINE, CALLED 4 TIMES, CODE SIZE REDUCTION:4 WORDS
                 SUBOPT_0x2D:
000c88 e0f0      	LDI  R31,0
000c89 0fae      	ADD  R26,R30
000c8a 1fbf      	ADC  R27,R31
000c8b 9508      	RET
                 
                 ;OPTIMIZER ADDED SUBROUTINE, CALLED 2 TIMES, CODE SIZE REDUCTION:2 WORDS
                 SUBOPT_0x2E:
000c8c e0f0      	LDI  R31,0
000c8d 0fea      	ADD  R30,R26
000c8e 1ffb      	ADC  R31,R27
000c8f 83ee      	STD  Y+6,R30
000c90 83ff      	STD  Y+6+1,R31
000c91 9508      	RET
                 
                 ;OPTIMIZER ADDED SUBROUTINE, CALLED 2 TIMES, CODE SIZE REDUCTION:8 WORDS
                 SUBOPT_0x2F:
000c92 89e8      	LDD  R30,Y+16
000c93 93ea      	ST   -Y,R30
000c94 81ef      	LDD  R30,Y+7
000c95 85f8      	LDD  R31,Y+7+1
000c96 9631      	ADIW R30,1
000c97 83ef      	STD  Y+7,R30
000c98 87f8      	STD  Y+7+1,R31
000c99 9731      	SBIW R30,1
000c9a df2c      	RCALL SUBOPT_0x2
000c9b e0a0      	LDI  R26,LOW(0)
000c9c cede      	RJMP _glcd_writemem
                 
                 ;OPTIMIZER ADDED SUBROUTINE, CALLED 4 TIMES, CODE SIZE REDUCTION:1 WORDS
                 SUBOPT_0x30:
000c9d e0f0      	LDI  R31,0
000c9e d0f8      	RCALL __MULW12U
000c9f 9508      	RET
                 
                 ;OPTIMIZER ADDED SUBROUTINE, CALLED 3 TIMES, CODE SIZE REDUCTION:2 WORDS
                 SUBOPT_0x31:
000ca0 e0f0      	LDI  R31,0
000ca1 58e8      	SUBI R30,LOW(-__glcd_mask*2)
000ca2 4ffc      	SBCI R31,HIGH(-__glcd_mask*2)
000ca3 9508      	RET
                 
                 ;OPTIMIZER ADDED SUBROUTINE, CALLED 6 TIMES, CODE SIZE REDUCTION:3 WORDS
                 SUBOPT_0x32:
000ca4 89e8      	LDD  R30,Y+16
000ca5 93ea      	ST   -Y,R30
000ca6 9508      	RET
                 
                 ;OPTIMIZER ADDED SUBROUTINE, CALLED 2 TIMES, CODE SIZE REDUCTION:2 WORDS
                 SUBOPT_0x33:
000ca7 81af      	LDD  R26,Y+7
000ca8 85b8      	LDD  R27,Y+7+1
000ca9 2788      	CLR  R24
000caa 2799      	CLR  R25
000cab ceb5      	RJMP _glcd_readmem
                 
                 ;OPTIMIZER ADDED SUBROUTINE, CALLED 4 TIMES, CODE SIZE REDUCTION:1 WORDS
                 SUBOPT_0x34:
000cac 81ef      	LDD  R30,Y+7
000cad 85f8      	LDD  R31,Y+7+1
000cae 9508      	RET
                 
                 ;OPTIMIZER ADDED SUBROUTINE, CALLED 3 TIMES, CODE SIZE REDUCTION:2 WORDS
                 SUBOPT_0x35:
000caf 89aa      	LDD  R26,Y+18
000cb0 1ba1      	SUB  R26,R17
000cb1 30a8      	CPI  R26,LOW(0x8)
000cb2 9508      	RET
                 
                 ;OPTIMIZER ADDED SUBROUTINE, CALLED 2 TIMES, CODE SIZE REDUCTION:2 WORDS
                 SUBOPT_0x36:
000cb3 dff8      	RCALL SUBOPT_0x34
000cb4 9631      	ADIW R30,1
000cb5 83ef      	STD  Y+7,R30
000cb6 87f8      	STD  Y+7+1,R31
000cb7 9731      	SBIW R30,1
000cb8 9508      	RET
                 
                 ;OPTIMIZER ADDED SUBROUTINE, CALLED 3 TIMES, CODE SIZE REDUCTION:2 WORDS
                 SUBOPT_0x37:
000cb9 930a      	ST   -Y,R16
000cba 89ec      	LDD  R30,Y+20
000cbb 93ea      	ST   -Y,R30
000cbc 9508      	RET
                 
                 ;OPTIMIZER ADDED SUBROUTINE, CALLED 2 TIMES, CODE SIZE REDUCTION:2 WORDS
                 SUBOPT_0x38:
000cbd 93ea      	ST   -Y,R30
000cbe 85ee      	LDD  R30,Y+14
000cbf 93ea      	ST   -Y,R30
000cc0 89a9      	LDD  R26,Y+17
000cc1 caa8      	RJMP _st7920_wrmasked_G100
                 
                 ;OPTIMIZER ADDED SUBROUTINE, CALLED 2 TIMES, CODE SIZE REDUCTION:1 WORDS
                 SUBOPT_0x39:
000cc2 dfa4      	RCALL SUBOPT_0x24
000cc3 81a8      	LD   R26,Y
000cc4 81b9      	LDD  R27,Y+1
000cc5 d14e      	RCALL __CPW02
000cc6 9508      	RET
                 
                 ;OPTIMIZER ADDED SUBROUTINE, CALLED 7 TIMES, CODE SIZE REDUCTION:4 WORDS
                 SUBOPT_0x3A:
000cc7 81a8      	LD   R26,Y
000cc8 81b9      	LDD  R27,Y+1
000cc9 9508      	RET
                 
                 ;OPTIMIZER ADDED SUBROUTINE, CALLED 2 TIMES, CODE SIZE REDUCTION:1 WORDS
                 SUBOPT_0x3B:
                +
000cca e0e0     +LDI R30 , LOW ( 0x0 )
000ccb e0f0     +LDI R31 , HIGH ( 0x0 )
000ccc e060     +LDI R22 , BYTE3 ( 0x0 )
000ccd e070     +LDI R23 , BYTE4 ( 0x0 )
                 	__GETD1N 0x0
000cce 9508      	RET
                 
                 ;OPTIMIZER ADDED SUBROUTINE, CALLED 2 TIMES, CODE SIZE REDUCTION:2 WORDS
                 SUBOPT_0x3C:
000ccf d148      	RCALL __SAVELOCR6
                +
000cd0 91e0 01a8+LDS R30 , _glcd_state + ( 4 )
000cd2 91f0 01a9+LDS R31 , _glcd_state + ( 4 ) + 1
                 	__GETW1MN _glcd_state,4
000cd4 9508      	RET
                 
                 ;OPTIMIZER ADDED SUBROUTINE, CALLED 3 TIMES, CODE SIZE REDUCTION:4 WORDS
                 SUBOPT_0x3D:
000cd5 01f8      	MOVW R30,R16
                +
000cd6 5f0f     +SUBI R16 , LOW ( - 1 )
000cd7 4f1f     +SBCI R17 , HIGH ( - 1 )
                 	__ADDWRN 16,17,1
000cd8 9004      	LPM  R0,Z
000cd9 9508      	RET
                 
                 ;OPTIMIZER ADDED SUBROUTINE, CALLED 4 TIMES, CODE SIZE REDUCTION:13 WORDS
                 SUBOPT_0x3E:
                +
000cda 91e0 01a8+LDS R30 , _glcd_state + ( 4 )
000cdc 91f0 01a9+LDS R31 , _glcd_state + ( 4 ) + 1
                 	__GETW1MN _glcd_state,4
000cde 9631      	ADIW R30,1
000cdf 91e4      	LPM  R30,Z
000ce0 9508      	RET
                 
                 ;OPTIMIZER ADDED SUBROUTINE, CALLED 3 TIMES, CODE SIZE REDUCTION:2 WORDS
                 SUBOPT_0x3F:
000ce1 dc81      	RCALL _glcd_clipy
                +
000ce2 93e0 01a7+STS _glcd_state + ( 3 ) , R30
                 	__PUTB1MN _glcd_state,3
000ce4 9508      	RET
                 
                 ;OPTIMIZER ADDED SUBROUTINE, CALLED 6 TIMES, CODE SIZE REDUCTION:3 WORDS
                 SUBOPT_0x40:
                +
000ce5 91e0 01a6+LDS R30 , _glcd_state + ( 2 )
                 	__GETB1MN _glcd_state,2
000ce7 9508      	RET
                 
                 ;OPTIMIZER ADDED SUBROUTINE, CALLED 3 TIMES, CODE SIZE REDUCTION:4 WORDS
                 SUBOPT_0x41:
000ce8 93ea      	ST   -Y,R30
                +
000ce9 91e0 01a7+LDS R30 , _glcd_state + ( 3 )
                 	__GETB1MN _glcd_state,3
000ceb 93ea      	ST   -Y,R30
000cec 9508      	RET
                 
                 ;OPTIMIZER ADDED SUBROUTINE, CALLED 3 TIMES, CODE SIZE REDUCTION:4 WORDS
                 SUBOPT_0x42:
000ced df8b      	RCALL SUBOPT_0x29
000cee ded8      	RCALL SUBOPT_0x2
000cef e0a9      	LDI  R26,LOW(9)
000cf0 cabc      	RJMP _glcd_block
                 
                 ;OPTIMIZER ADDED SUBROUTINE, CALLED 2 TIMES, CODE SIZE REDUCTION:3 WORDS
                 SUBOPT_0x43:
000cf1 df7a      	RCALL SUBOPT_0x26
000cf2 91ed      	LD   R30,X+
000cf3 83a9      	STD  Y+1,R26
000cf4 83ba      	STD  Y+1+1,R27
000cf5 2f1e      	MOV  R17,R30
000cf6 30e0      	CPI  R30,0
000cf7 9508      	RET
                 
                 ;OPTIMIZER ADDED SUBROUTINE, CALLED 4 TIMES, CODE SIZE REDUCTION:1 WORDS
                 SUBOPT_0x44:
000cf8 81ad      	LDD  R26,Y+5
000cf9 81be      	LDD  R27,Y+5+1
000cfa 9508      	RET
                 
                 ;OPTIMIZER ADDED SUBROUTINE, CALLED 3 TIMES, CODE SIZE REDUCTION:2 WORDS
                 SUBOPT_0x45:
000cfb 83ad      	STD  Y+5,R26
000cfc 83be      	STD  Y+5+1,R27
000cfd cffa      	RJMP SUBOPT_0x44
                 
                 ;OPTIMIZER ADDED SUBROUTINE, CALLED 5 TIMES, CODE SIZE REDUCTION:6 WORDS
                 SUBOPT_0x46:
000cfe d029      	RCALL _i2c_start
000cff eda0      	LDI  R26,LOW(208)
000d00 c05b      	RJMP _i2c_write
                 
                 ;OPTIMIZER ADDED SUBROUTINE, CALLED 5 TIMES, CODE SIZE REDUCTION:2 WORDS
                 SUBOPT_0x47:
000d01 d05a      	RCALL _i2c_write
000d02 c034      	RJMP _i2c_stop
                 
                 ;OPTIMIZER ADDED SUBROUTINE, CALLED 2 TIMES, CODE SIZE REDUCTION:2 WORDS
                 SUBOPT_0x48:
000d03 d024      	RCALL _i2c_start
000d04 eda1      	LDI  R26,LOW(209)
000d05 d056      	RCALL _i2c_write
000d06 e0a1      	LDI  R26,LOW(1)
000d07 c039      	RJMP _i2c_read
                 
                 ;OPTIMIZER ADDED SUBROUTINE, CALLED 6 TIMES, CODE SIZE REDUCTION:3 WORDS
                 SUBOPT_0x49:
000d08 2fae      	MOV  R26,R30
000d09 ce9f      	RJMP _bcd2bin
                 
                 ;OPTIMIZER ADDED SUBROUTINE, CALLED 3 TIMES, CODE SIZE REDUCTION:4 WORDS
                 SUBOPT_0x4A:
000d0a 93ec      	ST   X,R30
000d0b e0a1      	LDI  R26,LOW(1)
000d0c d034      	RCALL _i2c_read
000d0d cffa      	RJMP SUBOPT_0x49
                 
                 ;OPTIMIZER ADDED SUBROUTINE, CALLED 2 TIMES, CODE SIZE REDUCTION:3 WORDS
                 SUBOPT_0x4B:
000d0e 81aa      	LDD  R26,Y+2
000d0f 81bb      	LDD  R27,Y+2+1
000d10 93ec      	ST   X,R30
000d11 e0a0      	LDI  R26,LOW(0)
000d12 d02e      	RCALL _i2c_read
000d13 cff4      	RJMP SUBOPT_0x49
                 
                 ;OPTIMIZER ADDED SUBROUTINE, CALLED 2 TIMES, CODE SIZE REDUCTION:1 WORDS
                 SUBOPT_0x4C:
000d14 d047      	RCALL _i2c_write
000d15 81a8      	LD   R26,Y
000d16 de9f      	RCALL _bin2bcd
000d17 2fae      	MOV  R26,R30
000d18 9508      	RET
                 
                 ;OPTIMIZER ADDED SUBROUTINE, CALLED 2 TIMES, CODE SIZE REDUCTION:1 WORDS
                 SUBOPT_0x4D:
000d19 d042      	RCALL _i2c_write
000d1a 81a9      	LDD  R26,Y+1
000d1b de9a      	RCALL _bin2bcd
000d1c 2fae      	MOV  R26,R30
000d1d 9508      	RET
                 
                 ;OPTIMIZER ADDED SUBROUTINE, CALLED 2 TIMES, CODE SIZE REDUCTION:1 WORDS
                 SUBOPT_0x4E:
000d1e d03d      	RCALL _i2c_write
000d1f 81aa      	LDD  R26,Y+2
000d20 de95      	RCALL _bin2bcd
000d21 2fae      	MOV  R26,R30
000d22 9508      	RET
                 
                 
                 	.CSEG
                 	.equ __sda_bit=4
                 	.equ __scl_bit=5
                 	.equ __i2c_port=0x15 ;PORTC
                 	.equ __i2c_dir=__i2c_port-1
                 	.equ __i2c_pin=__i2c_port-2
                 
                 _i2c_init:
000d23 98ad      	cbi  __i2c_port,__scl_bit
000d24 98ac      	cbi  __i2c_port,__sda_bit
000d25 9aa5      	sbi  __i2c_dir,__scl_bit
000d26 98a4      	cbi  __i2c_dir,__sda_bit
000d27 c015      	rjmp __i2c_delay2
                 _i2c_start:
000d28 98a4      	cbi  __i2c_dir,__sda_bit
000d29 98a5      	cbi  __i2c_dir,__scl_bit
000d2a 27ee      	clr  r30
000d2b 0000      	nop
000d2c 9b9c      	sbis __i2c_pin,__sda_bit
000d2d 9508      	ret
000d2e 9b9d      	sbis __i2c_pin,__scl_bit
000d2f 9508      	ret
000d30 d004      	rcall __i2c_delay1
000d31 9aa4      	sbi  __i2c_dir,__sda_bit
000d32 d002      	rcall __i2c_delay1
000d33 9aa5      	sbi  __i2c_dir,__scl_bit
000d34 e0e1      	ldi  r30,1
                 __i2c_delay1:
000d35 e062      	ldi  r22,2
000d36 c007      	rjmp __i2c_delay2l
                 _i2c_stop:
000d37 9aa4      	sbi  __i2c_dir,__sda_bit
000d38 9aa5      	sbi  __i2c_dir,__scl_bit
000d39 d003      	rcall __i2c_delay2
000d3a 98a5      	cbi  __i2c_dir,__scl_bit
000d3b dff9      	rcall __i2c_delay1
000d3c 98a4      	cbi  __i2c_dir,__sda_bit
                 __i2c_delay2:
000d3d e063      	ldi  r22,3
                 __i2c_delay2l:
000d3e 956a      	dec  r22
000d3f f7f1      	brne __i2c_delay2l
000d40 9508      	ret
                 _i2c_read:
000d41 e078      	ldi  r23,8
                 __i2c_read0:
000d42 98a5      	cbi  __i2c_dir,__scl_bit
000d43 dff1      	rcall __i2c_delay1
                 __i2c_read3:
000d44 9b9d      	sbis __i2c_pin,__scl_bit
000d45 cffe      	rjmp __i2c_read3
000d46 dfee      	rcall __i2c_delay1
000d47 9488      	clc
000d48 999c      	sbic __i2c_pin,__sda_bit
000d49 9408      	sec
000d4a 9aa5      	sbi  __i2c_dir,__scl_bit
000d4b dff1      	rcall __i2c_delay2
000d4c 1fee      	rol  r30
000d4d 957a      	dec  r23
000d4e f799      	brne __i2c_read0
000d4f 2f7a      	mov  r23,r26
000d50 2377      	tst  r23
000d51 f411      	brne __i2c_read1
000d52 98a4      	cbi  __i2c_dir,__sda_bit
000d53 c001      	rjmp __i2c_read2
                 __i2c_read1:
000d54 9aa4      	sbi  __i2c_dir,__sda_bit
                 __i2c_read2:
000d55 dfdf      	rcall __i2c_delay1
000d56 98a5      	cbi  __i2c_dir,__scl_bit
000d57 dfe5      	rcall __i2c_delay2
000d58 9aa5      	sbi  __i2c_dir,__scl_bit
000d59 dfdb      	rcall __i2c_delay1
000d5a 98a4      	cbi  __i2c_dir,__sda_bit
000d5b cfd9      	rjmp __i2c_delay1
                 
                 _i2c_write:
000d5c e078      	ldi  r23,8
                 __i2c_write0:
000d5d 0faa      	lsl  r26
000d5e f410      	brcc __i2c_write1
000d5f 98a4      	cbi  __i2c_dir,__sda_bit
000d60 c001      	rjmp __i2c_write2
                 __i2c_write1:
000d61 9aa4      	sbi  __i2c_dir,__sda_bit
                 __i2c_write2:
000d62 dfda      	rcall __i2c_delay2
000d63 98a5      	cbi  __i2c_dir,__scl_bit
000d64 dfd0      	rcall __i2c_delay1
                 __i2c_write3:
000d65 9b9d      	sbis __i2c_pin,__scl_bit
000d66 cffe      	rjmp __i2c_write3
000d67 dfcd      	rcall __i2c_delay1
000d68 9aa5      	sbi  __i2c_dir,__scl_bit
000d69 957a      	dec  r23
000d6a f791      	brne __i2c_write0
000d6b 98a4      	cbi  __i2c_dir,__sda_bit
000d6c dfc8      	rcall __i2c_delay1
000d6d 98a5      	cbi  __i2c_dir,__scl_bit
000d6e dfce      	rcall __i2c_delay2
000d6f e0e1      	ldi  r30,1
000d70 999c      	sbic __i2c_pin,__sda_bit
000d71 27ee      	clr  r30
000d72 9aa5      	sbi  __i2c_dir,__scl_bit
000d73 cfc1      	rjmp __i2c_delay1
                 
                 _delay_ms:
000d74 9610      	adiw r26,0
000d75 f039      	breq __delay_ms1
                 __delay_ms0:
                +
000d76 ef8a     +LDI R24 , LOW ( 0xFA )
000d77 e090     +LDI R25 , HIGH ( 0xFA )
                +__DELAY_USW_LOOP :
000d78 9701     +SBIW R24 , 1
000d79 f7f1     +BRNE __DELAY_USW_LOOP
                 	__DELAY_USW 0xFA
000d7a 95a8      	wdr
000d7b 9711      	sbiw r26,1
000d7c f7c9      	brne __delay_ms0
                 __delay_ms1:
000d7d 9508      	ret
                 
                 __ANEGW1:
000d7e 95f1      	NEG  R31
000d7f 95e1      	NEG  R30
000d80 40f0      	SBCI R31,0
000d81 9508      	RET
                 
                 __LSLB12:
000d82 23ee      	TST  R30
000d83 2e0e      	MOV  R0,R30
000d84 2fea      	MOV  R30,R26
000d85 f019      	BREQ __LSLB12R
                 __LSLB12L:
000d86 0fee      	LSL  R30
000d87 940a      	DEC  R0
000d88 f7e9      	BRNE __LSLB12L
                 __LSLB12R:
000d89 9508      	RET
                 
                 __LSRB12:
000d8a 23ee      	TST  R30
000d8b 2e0e      	MOV  R0,R30
000d8c 2fea      	MOV  R30,R26
000d8d f019      	BREQ __LSRB12R
                 __LSRB12L:
000d8e 95e6      	LSR  R30
000d8f 940a      	DEC  R0
000d90 f7e9      	BRNE __LSRB12L
                 __LSRB12R:
000d91 9508      	RET
                 
                 __NEB12:
000d92 17ea      	CP   R30,R26
000d93 e0e1      	LDI  R30,1
000d94 f409      	BRNE __NEB12T
000d95 27ee      	CLR  R30
                 __NEB12T:
000d96 9508      	RET
                 
                 __MULW12U:
000d97 9ffa      	MUL  R31,R26
000d98 2df0      	MOV  R31,R0
000d99 9feb      	MUL  R30,R27
000d9a 0df0      	ADD  R31,R0
000d9b 9fea      	MUL  R30,R26
000d9c 2de0      	MOV  R30,R0
000d9d 0df1      	ADD  R31,R1
000d9e 9508      	RET
                 
                 __MULD12U:
000d9f 9f7a      	MUL  R23,R26
000da0 2d70      	MOV  R23,R0
000da1 9f6b      	MUL  R22,R27
000da2 0d70      	ADD  R23,R0
000da3 9ff8      	MUL  R31,R24
000da4 0d70      	ADD  R23,R0
000da5 9fe9      	MUL  R30,R25
000da6 0d70      	ADD  R23,R0
000da7 9f6a      	MUL  R22,R26
000da8 2d60      	MOV  R22,R0
000da9 0d71      	ADD  R23,R1
000daa 9ffb      	MUL  R31,R27
000dab 0d60      	ADD  R22,R0
000dac 1d71      	ADC  R23,R1
000dad 9fe8      	MUL  R30,R24
000dae 0d60      	ADD  R22,R0
000daf 1d71      	ADC  R23,R1
000db0 2788      	CLR  R24
000db1 9ffa      	MUL  R31,R26
000db2 2df0      	MOV  R31,R0
000db3 0d61      	ADD  R22,R1
000db4 1f78      	ADC  R23,R24
000db5 9feb      	MUL  R30,R27
000db6 0df0      	ADD  R31,R0
000db7 1d61      	ADC  R22,R1
000db8 1f78      	ADC  R23,R24
000db9 9fea      	MUL  R30,R26
000dba 2de0      	MOV  R30,R0
000dbb 0df1      	ADD  R31,R1
000dbc 1f68      	ADC  R22,R24
000dbd 1f78      	ADC  R23,R24
000dbe 9508      	RET
                 
                 __DIVW21U:
000dbf 2400      	CLR  R0
000dc0 2411      	CLR  R1
000dc1 e190      	LDI  R25,16
                 __DIVW21U1:
000dc2 0faa      	LSL  R26
000dc3 1fbb      	ROL  R27
000dc4 1c00      	ROL  R0
000dc5 1c11      	ROL  R1
000dc6 1a0e      	SUB  R0,R30
000dc7 0a1f      	SBC  R1,R31
000dc8 f418      	BRCC __DIVW21U2
000dc9 0e0e      	ADD  R0,R30
000dca 1e1f      	ADC  R1,R31
000dcb c001      	RJMP __DIVW21U3
                 __DIVW21U2:
000dcc 60a1      	SBR  R26,1
                 __DIVW21U3:
000dcd 959a      	DEC  R25
000dce f799      	BRNE __DIVW21U1
000dcf 01fd      	MOVW R30,R26
000dd0 01d0      	MOVW R26,R0
000dd1 9508      	RET
                 
                 __DIVW21:
000dd2 d012      	RCALL __CHKSIGNW
000dd3 dfeb      	RCALL __DIVW21U
000dd4 f40e      	BRTC __DIVW211
000dd5 dfa8      	RCALL __ANEGW1
                 __DIVW211:
000dd6 9508      	RET
                 
                 __MODW21:
000dd7 94e8      	CLT
000dd8 ffb7      	SBRS R27,7
000dd9 c004      	RJMP __MODW211
000dda 95a0      	COM  R26
000ddb 95b0      	COM  R27
000ddc 9611      	ADIW R26,1
000ddd 9468      	SET
                 __MODW211:
000dde fdf7      	SBRC R31,7
000ddf df9e      	RCALL __ANEGW1
000de0 dfde      	RCALL __DIVW21U
000de1 01fd      	MOVW R30,R26
000de2 f40e      	BRTC __MODW212
000de3 df9a      	RCALL __ANEGW1
                 __MODW212:
000de4 9508      	RET
                 
                 __CHKSIGNW:
000de5 94e8      	CLT
000de6 fff7      	SBRS R31,7
000de7 c002      	RJMP __CHKSW1
000de8 df95      	RCALL __ANEGW1
000de9 9468      	SET
                 __CHKSW1:
000dea ffb7      	SBRS R27,7
000deb c006      	RJMP __CHKSW2
000dec 95a0      	COM  R26
000ded 95b0      	COM  R27
000dee 9611      	ADIW R26,1
000def f800      	BLD  R0,0
000df0 9403      	INC  R0
000df1 fa00      	BST  R0,0
                 __CHKSW2:
000df2 9508      	RET
                 
                 __GETW1P:
000df3 91ed      	LD   R30,X+
000df4 91fc      	LD   R31,X
000df5 9711      	SBIW R26,1
000df6 9508      	RET
                 
                 __EEPROMRDB:
000df7 99e1      	SBIC EECR,EEWE
000df8 cffe      	RJMP __EEPROMRDB
000df9 93ff      	PUSH R31
000dfa b7ff      	IN   R31,SREG
000dfb 94f8      	CLI
000dfc bbae      	OUT  EEARL,R26
000dfd bbbf      	OUT  EEARH,R27
000dfe 9ae0      	SBI  EECR,EERE
000dff b3ed      	IN   R30,EEDR
000e00 bfff      	OUT  SREG,R31
000e01 91ff      	POP  R31
000e02 9508      	RET
                 
                 __EEPROMWRB:
000e03 9be1      	SBIS EECR,EEWE
000e04 c002      	RJMP __EEPROMWRB1
000e05 95a8      	WDR
000e06 cffc      	RJMP __EEPROMWRB
                 __EEPROMWRB1:
000e07 b79f      	IN   R25,SREG
000e08 94f8      	CLI
000e09 bbae      	OUT  EEARL,R26
000e0a bbbf      	OUT  EEARH,R27
000e0b 9ae0      	SBI  EECR,EERE
000e0c b38d      	IN   R24,EEDR
000e0d 17e8      	CP   R30,R24
000e0e f019      	BREQ __EEPROMWRB0
000e0f bbed      	OUT  EEDR,R30
000e10 9ae2      	SBI  EECR,EEMWE
000e11 9ae1      	SBI  EECR,EEWE
                 __EEPROMWRB0:
000e12 bf9f      	OUT  SREG,R25
000e13 9508      	RET
                 
                 __CPW02:
000e14 2400      	CLR  R0
000e15 160a      	CP   R0,R26
000e16 060b      	CPC  R0,R27
000e17 9508      	RET
                 
                 __SAVELOCR6:
000e18 935a      	ST   -Y,R21
                 __SAVELOCR5:
000e19 934a      	ST   -Y,R20
                 __SAVELOCR4:
000e1a 933a      	ST   -Y,R19
                 __SAVELOCR3:
000e1b 932a      	ST   -Y,R18
                 __SAVELOCR2:
000e1c 931a      	ST   -Y,R17
000e1d 930a      	ST   -Y,R16
000e1e 9508      	RET
                 
                 __LOADLOCR6:
000e1f 815d      	LDD  R21,Y+5
                 __LOADLOCR5:
000e20 814c      	LDD  R20,Y+4
                 __LOADLOCR4:
000e21 813b      	LDD  R19,Y+3
                 __LOADLOCR3:
000e22 812a      	LDD  R18,Y+2
                 __LOADLOCR2:
000e23 8119      	LDD  R17,Y+1
000e24 8108      	LD   R16,Y
000e25 9508      	RET
                 
                 ;END OF CODE MARKER
                 __END_OF_CODE:


RESOURCE USE INFORMATION
------------------------

Notice:
The register and instruction counts are symbol table hit counts,
and hence implicitly used resources are not counted, eg, the
'lpm' instruction without operands implicitly uses r0 and z,
none of which are counted.

x,y,z are separate entities in the symbol table and are
counted separately from r26..r31 here.

.dseg memory usage only counts static data declared with .byte

ATmega8 register use summary:
r0 :  45 r1 :  16 r2 :   7 r3 :   9 r4 :  13 r5 :   1 r6 :   1 r7 :  22 
r8 :  11 r9 :   4 r10:  11 r11:   3 r12:  22 r13:   0 r14:   0 r15:   2 
r16:  55 r17:  77 r18:  34 r19:  28 r20:  15 r21:  14 r22:  26 r23:  26 
r24:  29 r25:  12 r26: 401 r27:  92 r28:  17 r29:   1 r30: 914 r31: 168 
x  :  18 y  : 466 z  :  20 
Registers used: 33 out of 35 (94.3%)

ATmega8 instruction use summary:
.lds  :   0 .lds.l:   0 .sts  :   0 .sts.l:   0 adc   :  20 add   :  30 
adiw  :  26 and   :  10 andi  :  23 asr   :   0 bclr  :   0 bld   :   9 
brbc  :   0 brbs  :   0 brcc  :   2 brcs  :   0 break :   0 breq  :  52 
brge  :   0 brhc  :   0 brhs  :   0 brid  :   0 brie  :   0 brlo  :  14 
brlt  :   4 brmi  :   1 brne  : 126 brpl  :   0 brsh  :  25 brtc  :   2 
brts  :   0 brvc  :   0 brvs  :   0 bset  :   0 bst   :   9 cbi   :  28 
cbr   :   0 clc   :   1 clh   :   0 cli   :   3 cln   :   0 clr   :  40 
cls   :   0 clt   :   2 clv   :   0 clz   :   0 com   :  11 cp    :  60 
cpc   :  27 cpi   : 103 cpse  :   0 dec   :  15 des   :   0 eor   :   3 
fmul  :   0 fmuls :   0 fmulsu:   0 icall :   2 ijmp  :   0 in    :  15 
inc   :   8 ld    :  49 ldd   : 232 ldi   : 352 lds   :  29 lpm   :  31 
lsl   :   9 lsr   :   5 mov   : 107 movw  :  43 mul   :  14 muls  :   0 
mulsu :   0 neg   :   2 nop   :   4 or    :  11 ori   :  10 out   :  47 
pop   :   4 push  :   4 rcall : 537 ret   :  99 reti  :   2 rjmp  : 246 
rol   :   4 ror   :   0 sbc   :   2 sbci  :  29 sbi   :  29 sbic  :  19 
sbis  :  19 sbiw  :  20 sbr   :   1 sbrc  :   6 sbrs  :   3 sec   :   1 
seh   :   0 sei   :   1 sen   :   0 ser   :   0 ses   :   0 set   :   2 
sev   :   0 sez   :   0 sleep :   0 spm   :   0 st    : 142 std   :  62 
sts   :  32 sub   :   9 subi  :  71 swap  :   5 tst   :   8 wdr   :   2 

Instructions used: 71 out of 114 (62.3%)

ATmega8 memory use summary [bytes]:
Segment   Begin    End      Code   Data   Used    Size   Use%
---------------------------------------------------------------
[.cseg] 0x000000 0x001c4c   6048   1196   7244    8192  88.4%
[.dseg] 0x000060 0x00021d      0    189    189    1024  18.5%
[.eseg] 0x000000 0x000003      0      3      3     512   0.6%

Assembly complete, 0 errors, 16 warnings
